 RightInvariant_EKF_sfun

 Timestamp is 5aba6608 (Tue Mar 27 11:40:56 2018)

 Preferred load address is 0000000180000000

 Start         Length     Name                   Class
 0001:00000000 0004d390H .text$mn                CODE
 0001:0004d390 00000012H .text$mn$00             CODE
 0001:0004d3a2 00000081H .text$x                 CODE
 0002:00000000 000005f8H .idata$5                DATA
 0002:000005f8 00000010H .00cfg                  DATA
 0002:00000608 00000008H .CRT$XCA                DATA
 0002:00000610 00000008H .CRT$XCZ                DATA
 0002:00000618 00000008H .CRT$XIA                DATA
 0002:00000620 00000008H .CRT$XIZ                DATA
 0002:00000628 00000008H .CRT$XPA                DATA
 0002:00000630 00000008H .CRT$XPZ                DATA
 0002:00000638 00000008H .CRT$XTA                DATA
 0002:00000640 00000010H .CRT$XTZ                DATA
 0002:00000650 00005834H .rdata                  DATA
 0002:00005e84 0000022cH .rdata$zzzdbg           DATA
 0002:000060b0 00000008H .rtc$IAA                DATA
 0002:000060b8 00000008H .rtc$IZZ                DATA
 0002:000060c0 00000008H .rtc$TAA                DATA
 0002:000060c8 00000008H .rtc$TZZ                DATA
 0002:000060d0 00002ef0H .xdata                  DATA
 0002:00008fc0 00000060H .edata                  DATA
 0002:00009020 00000104H .idata$2                DATA
 0002:00009124 00000014H .idata$3                DATA
 0002:00009138 000005f8H .idata$4                DATA
 0002:00009730 000011b8H .idata$6                DATA
 0003:00000000 00000fd0H .data                   DATA
 0003:00000fd0 00000758H .bss                    DATA
 0004:00000000 00002058H .pdata                  DATA
 0005:00000000 00000018H .gfids$y                DATA

  Address         Publics by Value              Rva+Base               Lib:Object

 0000:00000000       __guard_iat_table          0000000000000000     <absolute>
 0000:00000000       __dynamic_value_reloc_table 0000000000000000     <absolute>
 0000:00000000       __guard_longjmp_count      0000000000000000     <absolute>
 0000:00000000       __guard_fids_table         0000000000000000     <absolute>
 0000:00000000       ___safe_se_handler_count   0000000000000000     <absolute>
 0000:00000000       __guard_longjmp_table      0000000000000000     <absolute>
 0000:00000000       ___safe_se_handler_table   0000000000000000     <absolute>
 0000:00000000       __guard_iat_count          0000000000000000     <absolute>
 0000:00000000       __guard_fids_count         0000000000000000     <absolute>
 0000:00000100       __guard_flags              0000000000000100     <absolute>
 0000:00000000       __ImageBase                0000000180000000     <linker-defined>
 0001:00000000       RightInvariant_EKF_debug_initialize 0000000180001000 f   RightInvariant_EKF_sfun.obj
 0001:00000070       RightInvariant_EKF_initializer 0000000180001070 f   RightInvariant_EKF_sfun.obj
 0001:00000080       RightInvariant_EKF_register_exported_symbols 0000000180001080 f   RightInvariant_EKF_sfun.obj
 0001:00000090       RightInvariant_EKF_terminator 0000000180001090 f   RightInvariant_EKF_sfun.obj
 0001:000000a0       load_RightInvariant_EKF_optimization_info 00000001800010a0 f   RightInvariant_EKF_sfun.obj
 0001:00000150       sf_RightInvariant_EKF_autoinheritance_info 0000000180001150 f   RightInvariant_EKF_sfun.obj
 0001:000002a0       sf_RightInvariant_EKF_get_eml_resolved_functions_info 00000001800012a0 f   RightInvariant_EKF_sfun.obj
 0001:00000390       sf_RightInvariant_EKF_jit_fallback_info 0000000180001390 f   RightInvariant_EKF_sfun.obj
 0001:000004e0       sf_RightInvariant_EKF_method_dispatcher 00000001800014e0 f   RightInvariant_EKF_sfun.obj
 0001:00000540       sf_RightInvariant_EKF_process_check_sum_call 0000000180001540 f   RightInvariant_EKF_sfun.obj
 0001:00000820       sf_RightInvariant_EKF_third_party_uses_info 0000000180001820 f   RightInvariant_EKF_sfun.obj
 0001:00000970       sf_RightInvariant_EKF_updateBuildInfo_args_info 0000000180001970 f   RightInvariant_EKF_sfun.obj
 0001:00000ac0       unload_RightInvariant_EKF_optimization_info 0000000180001ac0 f   RightInvariant_EKF_sfun.obj
 0001:00000af0       c1_RightInvariant_EKF_method_dispatcher 0000000180001af0 f   c1_RightInvariant_EKF.obj
 0001:00006cf0       sf_c1_RightInvariant_EKF_get_autoinheritance_info 0000000180007cf0 f   c1_RightInvariant_EKF.obj
 0001:00007340       sf_c1_RightInvariant_EKF_get_check_sum 0000000180008340 f   c1_RightInvariant_EKF.obj
 0001:000073b0       sf_c1_RightInvariant_EKF_get_eml_resolved_functions_info 00000001800083b0 f   c1_RightInvariant_EKF.obj
 0001:00007430       sf_c1_RightInvariant_EKF_get_post_codegen_info 0000000180008430 f   c1_RightInvariant_EKF.obj
 0001:000074f0       sf_c1_RightInvariant_EKF_jit_fallback_info 00000001800084f0 f   c1_RightInvariant_EKF.obj
 0001:00007640       sf_c1_RightInvariant_EKF_third_party_uses_info 0000000180008640 f   c1_RightInvariant_EKF.obj
 0001:00007650       sf_c1_RightInvariant_EKF_updateBuildInfo_args_info 0000000180008650 f   c1_RightInvariant_EKF.obj
 0001:00007c40       c2_RightInvariant_EKF_method_dispatcher 0000000180008c40 f   c2_RightInvariant_EKF.obj
 0001:0000a7e0       sf_c2_RightInvariant_EKF_get_autoinheritance_info 000000018000b7e0 f   c2_RightInvariant_EKF.obj
 0001:0000ae50       sf_c2_RightInvariant_EKF_get_check_sum 000000018000be50 f   c2_RightInvariant_EKF.obj
 0001:0000aec0       sf_c2_RightInvariant_EKF_get_eml_resolved_functions_info 000000018000bec0 f   c2_RightInvariant_EKF.obj
 0001:0000af50       sf_c2_RightInvariant_EKF_get_post_codegen_info 000000018000bf50 f   c2_RightInvariant_EKF.obj
 0001:0000b010       sf_c2_RightInvariant_EKF_jit_fallback_info 000000018000c010 f   c2_RightInvariant_EKF.obj
 0001:0000b160       sf_c2_RightInvariant_EKF_third_party_uses_info 000000018000c160 f   c2_RightInvariant_EKF.obj
 0001:0000b170       sf_c2_RightInvariant_EKF_updateBuildInfo_args_info 000000018000c170 f   c2_RightInvariant_EKF.obj
 0001:0000dc30       c40_RightInvariant_EKF_method_dispatcher 000000018000ec30 f   c40_RightInvariant_EKF.obj
 0001:00018060       sf_c40_RightInvariant_EKF_get_autoinheritance_info 0000000180019060 f   c40_RightInvariant_EKF.obj
 0001:00018c60       sf_c40_RightInvariant_EKF_get_check_sum 0000000180019c60 f   c40_RightInvariant_EKF.obj
 0001:00018cd0       sf_c40_RightInvariant_EKF_get_eml_resolved_functions_info 0000000180019cd0 f   c40_RightInvariant_EKF.obj
 0001:00018d80       sf_c40_RightInvariant_EKF_get_post_codegen_info 0000000180019d80 f   c40_RightInvariant_EKF.obj
 0001:00018e40       sf_c40_RightInvariant_EKF_jit_fallback_info 0000000180019e40 f   c40_RightInvariant_EKF.obj
 0001:00018f90       sf_c40_RightInvariant_EKF_third_party_uses_info 0000000180019f90 f   c40_RightInvariant_EKF.obj
 0001:00018fa0       sf_c40_RightInvariant_EKF_updateBuildInfo_args_info 0000000180019fa0 f   c40_RightInvariant_EKF.obj
 0001:00019910       ProcessMexSfunctionEveryCall 000000018001a910 f   RightInvariant_EKF_sfun_registry.obj
 0001:0001a0c0       __local_stdio_printf_options 000000018001b0c0 f i RightInvariant_EKF_sfun_registry.obj
 0001:0001a170       _ssGetAbsTol               000000018001b170 f   RightInvariant_EKF_sfun_registry.obj
 0001:0001a230       _ssGetCallSystemNumFcnCallDestinations 000000018001b230 f   RightInvariant_EKF_sfun_registry.obj
 0001:0001a270       _ssGetCompInputPortSymbolicDimsId 000000018001b270 f   RightInvariant_EKF_sfun_registry.obj
 0001:0001a2b0       _ssGetCompOutputPortSymbolicDimsId 000000018001b2b0 f   RightInvariant_EKF_sfun_registry.obj
 0001:0001a2f0       _ssGetCurrentInputPortWidth 000000018001b2f0 f   RightInvariant_EKF_sfun_registry.obj
 0001:0001a350       _ssGetCurrentOutputPortWidth 000000018001b350 f   RightInvariant_EKF_sfun_registry.obj
 0001:0001a3b0       _ssGetInputPortSignalFcn   000000018001b3b0 f   RightInvariant_EKF_sfun_registry.obj
 0001:0001a650       _ssGetInputPortSignalPtrsFcn 000000018001b650 f   RightInvariant_EKF_sfun_registry.obj
 0001:0001a8f0       _ssGetNumSymbolicDims      000000018001b8f0 f   RightInvariant_EKF_sfun_registry.obj
 0001:0001a940       _ssGetSymbolicDim          000000018001b940 f   RightInvariant_EKF_sfun_registry.obj
 0001:0001a980       _ssRegisterSymbolicDims    000000018001b980 f   RightInvariant_EKF_sfun_registry.obj
 0001:0001a9d0       _ssRegisterSymbolicDimsDivide 000000018001b9d0 f   RightInvariant_EKF_sfun_registry.obj
 0001:0001aa10       _ssRegisterSymbolicDimsExpr 000000018001ba10 f   RightInvariant_EKF_sfun_registry.obj
 0001:0001aa60       _ssRegisterSymbolicDimsIntValue 000000018001ba60 f   RightInvariant_EKF_sfun_registry.obj
 0001:0001aaa0       _ssRegisterSymbolicDimsMinus 000000018001baa0 f   RightInvariant_EKF_sfun_registry.obj
 0001:0001aae0       _ssRegisterSymbolicDimsMultiply 000000018001bae0 f   RightInvariant_EKF_sfun_registry.obj
 0001:0001ab20       _ssRegisterSymbolicDimsPlus 000000018001bb20 f   RightInvariant_EKF_sfun_registry.obj
 0001:0001ab60       _ssRegisterSymbolicDimsString 000000018001bb60 f   RightInvariant_EKF_sfun_registry.obj
 0001:0001abb0       _ssSetCompDWorkSymbolicDimsId 000000018001bbb0 f   RightInvariant_EKF_sfun_registry.obj
 0001:0001abf0       _ssSetCompInputPortSymbolicDimsId 000000018001bbf0 f   RightInvariant_EKF_sfun_registry.obj
 0001:0001ac30       _ssSetCompOutputPortSymbolicDimsId 000000018001bc30 f   RightInvariant_EKF_sfun_registry.obj
 0001:0001ac70       _ssSetInputPortDirectFeedThroughFcn 000000018001bc70 f   RightInvariant_EKF_sfun_registry.obj
 0001:0001add0       _ssSetInputPortMatrixDimensions 000000018001bdd0 f   RightInvariant_EKF_sfun_registry.obj
 0001:0001ae70       _ssSetInputPortReusableFcn 000000018001be70 f   RightInvariant_EKF_sfun_registry.obj
 0001:0001af10       _ssSetInputPortSymbolicDimsId 000000018001bf10 f   RightInvariant_EKF_sfun_registry.obj
 0001:0001af50       _ssSetInputPortVectorDimension 000000018001bf50 f   RightInvariant_EKF_sfun_registry.obj
 0001:0001afb0       _ssSetOutputPortMatrixDimensions 000000018001bfb0 f   RightInvariant_EKF_sfun_registry.obj
 0001:0001b050       _ssSetOutputPortReusableFcn 000000018001c050 f   RightInvariant_EKF_sfun_registry.obj
 0001:0001b0f0       _ssSetOutputPortSymbolicDimsId 000000018001c0f0 f   RightInvariant_EKF_sfun_registry.obj
 0001:0001b130       _ssSetOutputPortVectorDimension 000000018001c130 f   RightInvariant_EKF_sfun_registry.obj
 0001:0001b190       _ssSetStateAbsTol          000000018001c190 f   RightInvariant_EKF_sfun_registry.obj
 0001:0001b200       _ssSetSymbolicDimsSupport  000000018001c200 f   RightInvariant_EKF_sfun_registry.obj
 0001:0001b230       _vsnprintf_l               000000018001c230 f i RightInvariant_EKF_sfun_registry.obj
 0001:0001b2a0       _vsprintf_l                000000018001c2a0 f i RightInvariant_EKF_sfun_registry.obj
 0001:0001b310       callCustomFcn              000000018001c310 f   RightInvariant_EKF_sfun_registry.obj
 0001:0001b360       mdlGetSimState             000000018001c360 f   RightInvariant_EKF_sfun_registry.obj
 0001:0001b470       mdlSetSimState             000000018001c470 f   RightInvariant_EKF_sfun_registry.obj
 0001:0001b830       mexFunction                000000018001c830 f   RightInvariant_EKF_sfun_registry.obj
 0001:0001c2e0       sf_machine_global_initializer 000000018001d2e0 f   RightInvariant_EKF_sfun_registry.obj
 0001:0001c380       sf_machine_global_initializer_called 000000018001d380 f   RightInvariant_EKF_sfun_registry.obj
 0001:0001c390       sf_machine_global_method_dispatcher 000000018001d390 f   RightInvariant_EKF_sfun_registry.obj
 0001:0001c460       sf_machine_global_terminator 000000018001d460 f   RightInvariant_EKF_sfun_registry.obj
 0001:0001c4a0       sf_mex_unlock_call         000000018001d4a0 f   RightInvariant_EKF_sfun_registry.obj
 0001:0001c540       sf_process_autoinheritance_call 000000018001d540 f   RightInvariant_EKF_sfun_registry.obj
 0001:0001c6e0       sf_process_check_sum_call  000000018001d6e0 f   RightInvariant_EKF_sfun_registry.obj
 0001:0001c760       sf_process_get_eml_resolved_functions_info_call 000000018001d760 f   RightInvariant_EKF_sfun_registry.obj
 0001:0001c8e0       sf_process_get_jit_fallback_info_call 000000018001d8e0 f   RightInvariant_EKF_sfun_registry.obj
 0001:0001ca80       sf_process_get_third_party_uses_info_call 000000018001da80 f   RightInvariant_EKF_sfun_registry.obj
 0001:0001cc20       sf_process_get_updateBuildInfo_args_info_call 000000018001dc20 f   RightInvariant_EKF_sfun_registry.obj
 0001:0001cdc0       sf_register_machine_exported_symbols 000000018001ddc0 f   RightInvariant_EKF_sfun_registry.obj
 0001:0001cdf0       sprintf                    000000018001ddf0 f i RightInvariant_EKF_sfun_registry.obj
 0001:0001ce50       ssCloneAndAddZcSignalInfo  000000018001de50 f   RightInvariant_EKF_sfun_registry.obj
 0001:0001ce90       ssCreateAndAddZcSignalInfo 000000018001de90 f   RightInvariant_EKF_sfun_registry.obj
 0001:0001ced0       ssGetDTypeIdFromMxArray    000000018001ded0 f   RightInvariant_EKF_sfun_registry.obj
 0001:0001cfa0       ssGetIsInputPortElementContinuous 000000018001dfa0 f   RightInvariant_EKF_sfun_registry.obj
 0001:0001d010       ssGetIsZeroCrossControlDisabled 000000018001e010 f   RightInvariant_EKF_sfun_registry.obj
 0001:0001d050       ssGetNumZcSignals          000000018001e050 f   RightInvariant_EKF_sfun_registry.obj
 0001:0001d090       ssGetParameterTuningCompliance 000000018001e090 f   RightInvariant_EKF_sfun_registry.obj
 0001:0001d0d0       ssGetSFuncBlockHandle      000000018001e0d0 f   RightInvariant_EKF_sfun_registry.obj
 0001:0001d110       ssGetZcSignalIsZcElementDisc 000000018001e110 f   RightInvariant_EKF_sfun_registry.obj
 0001:0001d180       ssGetZcSignalName          000000018001e180 f   RightInvariant_EKF_sfun_registry.obj
 0001:0001d1d0       ssGetZcSignalNeedsEventNotification 000000018001e1d0 f   RightInvariant_EKF_sfun_registry.obj
 0001:0001d210       ssGetZcSignalType          000000018001e210 f   RightInvariant_EKF_sfun_registry.obj
 0001:0001d250       ssGetZcSignalVector        000000018001e250 f   RightInvariant_EKF_sfun_registry.obj
 0001:0001d2a0       ssGetZcSignalWidth         000000018001e2a0 f   RightInvariant_EKF_sfun_registry.obj
 0001:0001d2e0       ssGetZcSignalZcEventType   000000018001e2e0 f   RightInvariant_EKF_sfun_registry.obj
 0001:0001d320       ssGetZcSignalZcEvents      000000018001e320 f   RightInvariant_EKF_sfun_registry.obj
 0001:0001d370       ssGetZcSignalZcTol         000000018001e370 f   RightInvariant_EKF_sfun_registry.obj
 0001:0001d3b0       ssIsRunTimeParamTunable    000000018001e3b0 f   RightInvariant_EKF_sfun_registry.obj
 0001:0001d3f0       ssSetIsInputPortUsedForContZcSignal 000000018001e3f0 f   RightInvariant_EKF_sfun_registry.obj
 0001:0001d430       ssSetZcSignalIsZcElementDisc 000000018001e430 f   RightInvariant_EKF_sfun_registry.obj
 0001:0001d490       ssSetZcSignalName          000000018001e490 f   RightInvariant_EKF_sfun_registry.obj
 0001:0001d4c0       ssSetZcSignalNeedsEventNotification 000000018001e4c0 f   RightInvariant_EKF_sfun_registry.obj
 0001:0001d500       ssSetZcSignalType          000000018001e500 f   RightInvariant_EKF_sfun_registry.obj
 0001:0001d540       ssSetZcSignalWidth         000000018001e540 f   RightInvariant_EKF_sfun_registry.obj
 0001:0001d580       ssSetZcSignalZcEventType   000000018001e580 f   RightInvariant_EKF_sfun_registry.obj
 0001:0001d5c0       ssSetZcSignalZcTol         000000018001e5c0 f   RightInvariant_EKF_sfun_registry.obj
 0001:0001d600       ssWarning                  000000018001e600 f   RightInvariant_EKF_sfun_registry.obj
 0001:0001d6e0       ssWriteRTWMx2dMatParam     000000018001e6e0 f   RightInvariant_EKF_sfun_registry.obj
 0001:0001d730       ssWriteRTWMxVectParam      000000018001e730 f   RightInvariant_EKF_sfun_registry.obj
 0001:0001d770       ssWriteRTWNameValuePair    000000018001e770 f   RightInvariant_EKF_sfun_registry.obj
 0001:0001d960       ssWriteRTWParamSettings    000000018001e960 f   RightInvariant_EKF_sfun_registry.obj
 0001:0001dc30       ssWriteRTWParameters       000000018001ec30 f   RightInvariant_EKF_sfun_registry.obj
 0001:0001de20       ssWriteRTWStr              000000018001ee20 f   RightInvariant_EKF_sfun_registry.obj
 0001:0001de40       ssWriteRTWWorkVect         000000018001ee40 f   RightInvariant_EKF_sfun_registry.obj
 0001:0001e1c0       Cos                        000000018001f1c0 f i p_RightToeBottom_src.obj
 0001:0001e1d0       Sin                        000000018001f1d0 f i p_RightToeBottom_src.obj
 0001:0001f150       p_RightToeBottom_src       0000000180020150 f   p_RightToeBottom_src.obj
 0001:000200f0       p_LeftToeBottom_src        00000001800210f0 f   p_LeftToeBottom_src.obj
 0001:00020100       J_RightToeBottom_src       0000000180021100 f   J_RightToeBottom_src.obj
 0001:000249a0       J_LeftToeBottom_src        00000001800259a0 f   J_LeftToeBottom_src.obj
 0001:00029dd0       p_VectorNav_to_RightToeBottom_src 000000018002add0 f   p_VectorNav_to_RightToeBottom_src.obj
 0001:00029de0       R_VectorNav_to_RightToeBottom_src 000000018002ade0 f   R_VectorNav_to_RightToeBottom_src.obj
 0001:0002aec0       p_VectorNav_to_LeftToeBottom_src 000000018002bec0 f   p_VectorNav_to_LeftToeBottom_src.obj
 0001:0002aed0       R_VectorNav_to_LeftToeBottom_src 000000018002bed0 f   R_VectorNav_to_LeftToeBottom_src.obj
 0001:0002b460       J_VectorNav_to_RightToeBottom_src 000000018002c460 f   J_VectorNav_to_RightToeBottom_src.obj
 0001:0002da60       J_VectorNav_to_LeftToeBottom_src 000000018002ea60 f   J_VectorNav_to_LeftToeBottom_src.obj
 0001:0002fff0       p_VectorNav_to_Pelvis_src  0000000180030ff0 f   p_VectorNav_to_Pelvis_src.obj
 0001:00030020       R_VectorNav_to_Pelvis_src  0000000180031020 f   R_VectorNav_to_Pelvis_src.obj
 0001:000300a0       StateEstimation_debug_initialize 00000001800310a0 f   StateEstimation_sfun:StateEstimation_sfun.obj
 0001:00030110       StateEstimation_initializer 0000000180031110 f   StateEstimation_sfun:StateEstimation_sfun.obj
 0001:00030120       StateEstimation_register_exported_symbols 0000000180031120 f   StateEstimation_sfun:StateEstimation_sfun.obj
 0001:00030130       StateEstimation_terminator 0000000180031130 f   StateEstimation_sfun:StateEstimation_sfun.obj
 0001:00030140       load_StateEstimation_optimization_info 0000000180031140 f   StateEstimation_sfun:StateEstimation_sfun.obj
 0001:000301f0       sf_StateEstimation_autoinheritance_info 00000001800311f0 f   StateEstimation_sfun:StateEstimation_sfun.obj
 0001:00030340       sf_StateEstimation_get_eml_resolved_functions_info 0000000180031340 f   StateEstimation_sfun:StateEstimation_sfun.obj
 0001:00030430       sf_StateEstimation_jit_fallback_info 0000000180031430 f   StateEstimation_sfun:StateEstimation_sfun.obj
 0001:00030580       sf_StateEstimation_method_dispatcher 0000000180031580 f   StateEstimation_sfun:StateEstimation_sfun.obj
 0001:000305e0       sf_StateEstimation_process_check_sum_call 00000001800315e0 f   StateEstimation_sfun:StateEstimation_sfun.obj
 0001:00030800       sf_StateEstimation_third_party_uses_info 0000000180031800 f   StateEstimation_sfun:StateEstimation_sfun.obj
 0001:00030950       sf_StateEstimation_updateBuildInfo_args_info 0000000180031950 f   StateEstimation_sfun:StateEstimation_sfun.obj
 0001:00030aa0       unload_StateEstimation_optimization_info 0000000180031aa0 f   StateEstimation_sfun:StateEstimation_sfun.obj
 0001:00030ad0       c21_StateEstimation_method_dispatcher 0000000180031ad0 f   StateEstimation_sfun:c21_StateEstimation.obj
 0001:000337a0       sf_c21_StateEstimation_get_autoinheritance_info 00000001800347a0 f   StateEstimation_sfun:c21_StateEstimation.obj
 0001:00033e10       sf_c21_StateEstimation_get_check_sum 0000000180034e10 f   StateEstimation_sfun:c21_StateEstimation.obj
 0001:00033e80       sf_c21_StateEstimation_get_eml_resolved_functions_info 0000000180034e80 f   StateEstimation_sfun:c21_StateEstimation.obj
 0001:00033f10       sf_c21_StateEstimation_get_post_codegen_info 0000000180034f10 f   StateEstimation_sfun:c21_StateEstimation.obj
 0001:00033fd0       sf_c21_StateEstimation_jit_fallback_info 0000000180034fd0 f   StateEstimation_sfun:c21_StateEstimation.obj
 0001:00034120       sf_c21_StateEstimation_third_party_uses_info 0000000180035120 f   StateEstimation_sfun:c21_StateEstimation.obj
 0001:00034130       sf_c21_StateEstimation_updateBuildInfo_args_info 0000000180035130 f   StateEstimation_sfun:c21_StateEstimation.obj
 0001:000377d0       c41_StateEstimation_method_dispatcher 00000001800387d0 f   StateEstimation_sfun:c41_StateEstimation.obj
 0001:0003f980       sf_c41_StateEstimation_get_autoinheritance_info 0000000180040980 f   StateEstimation_sfun:c41_StateEstimation.obj
 0001:000400a0       sf_c41_StateEstimation_get_check_sum 00000001800410a0 f   StateEstimation_sfun:c41_StateEstimation.obj
 0001:00040110       sf_c41_StateEstimation_get_eml_resolved_functions_info 0000000180041110 f   StateEstimation_sfun:c41_StateEstimation.obj
 0001:000401c0       sf_c41_StateEstimation_get_post_codegen_info 00000001800411c0 f   StateEstimation_sfun:c41_StateEstimation.obj
 0001:00040280       sf_c41_StateEstimation_jit_fallback_info 0000000180041280 f   StateEstimation_sfun:c41_StateEstimation.obj
 0001:000403d0       sf_c41_StateEstimation_third_party_uses_info 00000001800413d0 f   StateEstimation_sfun:c41_StateEstimation.obj
 0001:000403e0       sf_c41_StateEstimation_updateBuildInfo_args_info 00000001800413e0 f   StateEstimation_sfun:c41_StateEstimation.obj
 0001:000409a0       c42_StateEstimation_method_dispatcher 00000001800419a0 f   StateEstimation_sfun:c42_StateEstimation.obj
 0001:00043600       sf_c42_StateEstimation_get_autoinheritance_info 0000000180044600 f   StateEstimation_sfun:c42_StateEstimation.obj
 0001:00043a80       sf_c42_StateEstimation_get_check_sum 0000000180044a80 f   StateEstimation_sfun:c42_StateEstimation.obj
 0001:00043af0       sf_c42_StateEstimation_get_eml_resolved_functions_info 0000000180044af0 f   StateEstimation_sfun:c42_StateEstimation.obj
 0001:00043b80       sf_c42_StateEstimation_get_post_codegen_info 0000000180044b80 f   StateEstimation_sfun:c42_StateEstimation.obj
 0001:00043c40       sf_c42_StateEstimation_jit_fallback_info 0000000180044c40 f   StateEstimation_sfun:c42_StateEstimation.obj
 0001:00043d90       sf_c42_StateEstimation_third_party_uses_info 0000000180044d90 f   StateEstimation_sfun:c42_StateEstimation.obj
 0001:00043da0       sf_c42_StateEstimation_updateBuildInfo_args_info 0000000180044da0 f   StateEstimation_sfun:c42_StateEstimation.obj
 0001:00045690       UDP_Communication_debug_initialize 0000000180046690 f   UDP_Communication_sfun:UDP_Communication_sfun.obj
 0001:00045700       UDP_Communication_initializer 0000000180046700 f   UDP_Communication_sfun:UDP_Communication_sfun.obj
 0001:00045710       UDP_Communication_register_exported_symbols 0000000180046710 f   UDP_Communication_sfun:UDP_Communication_sfun.obj
 0001:00045720       UDP_Communication_terminator 0000000180046720 f   UDP_Communication_sfun:UDP_Communication_sfun.obj
 0001:00045730       load_UDP_Communication_optimization_info 0000000180046730 f   UDP_Communication_sfun:UDP_Communication_sfun.obj
 0001:000457e0       sf_UDP_Communication_autoinheritance_info 00000001800467e0 f   UDP_Communication_sfun:UDP_Communication_sfun.obj
 0001:000458e0       sf_UDP_Communication_get_eml_resolved_functions_info 00000001800468e0 f   UDP_Communication_sfun:UDP_Communication_sfun.obj
 0001:000459b0       sf_UDP_Communication_jit_fallback_info 00000001800469b0 f   UDP_Communication_sfun:UDP_Communication_sfun.obj
 0001:00045ab0       sf_UDP_Communication_method_dispatcher 0000000180046ab0 f   UDP_Communication_sfun:UDP_Communication_sfun.obj
 0001:00045ae0       sf_UDP_Communication_process_check_sum_call 0000000180046ae0 f   UDP_Communication_sfun:UDP_Communication_sfun.obj
 0001:00045cd0       sf_UDP_Communication_third_party_uses_info 0000000180046cd0 f   UDP_Communication_sfun:UDP_Communication_sfun.obj
 0001:00045dd0       sf_UDP_Communication_updateBuildInfo_args_info 0000000180046dd0 f   UDP_Communication_sfun:UDP_Communication_sfun.obj
 0001:00045ed0       unload_UDP_Communication_optimization_info 0000000180046ed0 f   UDP_Communication_sfun:UDP_Communication_sfun.obj
 0001:000471b0       c43_UDP_Communication_method_dispatcher 00000001800481b0 f   UDP_Communication_sfun:c43_UDP_Communication.obj
 0001:00049de0       sf_c43_UDP_Communication_get_autoinheritance_info 000000018004ade0 f   UDP_Communication_sfun:c43_UDP_Communication.obj
 0001:0004a260       sf_c43_UDP_Communication_get_check_sum 000000018004b260 f   UDP_Communication_sfun:c43_UDP_Communication.obj
 0001:0004a2d0       sf_c43_UDP_Communication_get_eml_resolved_functions_info 000000018004b2d0 f   UDP_Communication_sfun:c43_UDP_Communication.obj
 0001:0004a350       sf_c43_UDP_Communication_get_post_codegen_info 000000018004b350 f   UDP_Communication_sfun:c43_UDP_Communication.obj
 0001:0004a410       sf_c43_UDP_Communication_jit_fallback_info 000000018004b410 f   UDP_Communication_sfun:c43_UDP_Communication.obj
 0001:0004a560       sf_c43_UDP_Communication_third_party_uses_info 000000018004b560 f   UDP_Communication_sfun:c43_UDP_Communication.obj
 0001:0004a570       sf_c43_UDP_Communication_updateBuildInfo_args_info 000000018004b570 f   UDP_Communication_sfun:c43_UDP_Communication.obj
 0001:0004bc0a       sf_load_rtw_optimization_info 000000018004cc0a f   sf_runtime:sf_runtime.dll
 0001:0004bc10       sf_debug_initialize_machine 000000018004cc10 f   sf_runtime:sf_runtime.dll
 0001:0004bc16       sf_debug_set_machine_event_thresholds 000000018004cc16 f   sf_runtime:sf_runtime.dll
 0001:0004bc1c       sf_debug_set_machine_data_thresholds 000000018004cc1c f   sf_runtime:sf_runtime.dll
 0001:0004bc22       sf_init_ChartRunTimeInfo   000000018004cc22 f   sf_runtime:sf_runtime.dll
 0001:0004bc28       sf_free_ChartRunTimeInfo   000000018004cc28 f   sf_runtime:sf_runtime.dll
 0001:0004bc2e       sf_get_chart_instance_ptr  000000018004cc2e f   sf_runtime:sf_runtime.dll
 0001:0004bc34       sf_rtw_info_uint_prop      000000018004cc34 f   sf_runtime:sf_runtime.dll
 0001:0004bc3a       sf_update_buildInfo        000000018004cc3a f   sf_runtime:sf_runtime.dll
 0001:0004bc40       sf_is_chart_inlinable      000000018004cc40 f   sf_runtime:sf_runtime.dll
 0001:0004bc46       sf_mark_chart_reusable_outputs 000000018004cc46 f   sf_runtime:sf_runtime.dll
 0001:0004bc4c       sf_mark_chart_expressionable_inputs 000000018004cc4c f   sf_runtime:sf_runtime.dll
 0001:0004bc52       sim_mode_is_rtw_gen        000000018004cc52 f   sf_runtime:sf_runtime.dll
 0001:0004bc58       sim_mode_is_external       000000018004cc58 f   sf_runtime:sf_runtime.dll
 0001:0004bc5e       sim_mode_is_modelref_sim   000000018004cc5e f   sf_runtime:sf_runtime.dll
 0001:0004bc64       sf_mex_listen_for_ctrl_c_with_debugger 000000018004cc64 f   sf_runtime:sf_runtime.dll
 0001:0004bc6a       sf_clear_rtw_identifier    000000018004cc6a f   sf_runtime:sf_runtime.dll
 0001:0004bc70       sf_set_rtw_dwork_info      000000018004cc70 f   sf_runtime:sf_runtime.dll
 0001:0004bc76       sf_get_time                000000018004cc76 f   sf_runtime:sf_runtime.dll
 0001:0004bc7c       sf_is_first_init_cond      000000018004cc7c f   sf_runtime:sf_runtime.dll
 0001:0004bc82       sf_set_chart_accesses_machine_info 000000018004cc82 f   sf_runtime:sf_runtime.dll
 0001:0004bc88       sf_register_codegen_names_for_scoped_functions_defined_by_chart 000000018004cc88 f   sf_runtime:sf_runtime.dll
 0001:0004bc8e       sf_mex_call_debug          000000018004cc8e f   sf_runtime:sf_runtime.dll
 0001:0004bc94       sf_mex_error_message       000000018004cc94 f   sf_runtime:sf_runtime.dll
 0001:0004bc9a       sf_mex_create              000000018004cc9a f   sf_runtime:sf_runtime.dll
 0001:0004bca0       sf_mex_createcellmatrix    000000018004cca0 f   sf_runtime:sf_runtime.dll
 0001:0004bca6       sf_mex_setcell             000000018004cca6 f   sf_runtime:sf_runtime.dll
 0001:0004bcac       sf_mex_getcell             000000018004ccac f   sf_runtime:sf_runtime.dll
 0001:0004bcb2       sf_mex_assign              000000018004ccb2 f   sf_runtime:sf_runtime.dll
 0001:0004bcb8       sf_mex_dup                 000000018004ccb8 f   sf_runtime:sf_runtime.dll
 0001:0004bcbe       sf_mex_destroy             000000018004ccbe f   sf_runtime:sf_runtime.dll
 0001:0004bcc4       sf_mex_import              000000018004ccc4 f   sf_runtime:sf_runtime.dll
 0001:0004bcca       sf_mex_import_vs           000000018004ccca f   sf_runtime:sf_runtime.dll
 0001:0004bcd0       sf_mex_decode_encoded_mx_struct_array 000000018004ccd0 f   sf_runtime:sf_runtime.dll
 0001:0004bcd6       ssGetCurrentOutputPortDimensions_wrapper 000000018004ccd6 f   sf_runtime:sf_runtime.dll
 0001:0004bcdc       ssSetCurrentOutputPortDimensions_wrapper 000000018004ccdc f   sf_runtime:sf_runtime.dll
 0001:0004bce2       ssGetInputPortSignal_wrapper 000000018004cce2 f   sf_runtime:sf_runtime.dll
 0001:0004bce8       ssGetOutputPortSignal_wrapper 000000018004cce8 f   sf_runtime:sf_runtime.dll
 0001:0004bcee       sf_eml_array_bounds_check  000000018004ccee f   sf_runtime:sf_runtime.dll
 0001:0004bcf4       sf_integer_check           000000018004ccf4 f   sf_runtime:sf_runtime.dll
 0001:0004bcfa       sf_debug_initialize_chart  000000018004ccfa f   sf_runtime:sf_runtime.dll
 0001:0004bd00       sf_debug_call              000000018004cd00 f   sf_runtime:sf_runtime.dll
 0001:0004bd06       eml_debug_line_call        000000018004cd06 f   sf_runtime:sf_runtime.dll
 0001:0004bd0c       cv_eml_eval                000000018004cd0c f   sf_runtime:sf_runtime.dll
 0001:0004bd12       cv_eml_init_script         000000018004cd12 f   sf_runtime:sf_runtime.dll
 0001:0004bd18       cv_eml_init_fcn            000000018004cd18 f   sf_runtime:sf_runtime.dll
 0001:0004bd1e       cv_eml_init_if             000000018004cd1e f   sf_runtime:sf_runtime.dll
 0001:0004bd24       cv_eml_init_while          000000018004cd24 f   sf_runtime:sf_runtime.dll
 0001:0004bd2a       cv_eml_init_mcdc           000000018004cd2a f   sf_runtime:sf_runtime.dll
 0001:0004bd30       cv_script_eval             000000018004cd30 f   sf_runtime:sf_runtime.dll
 0001:0004bd36       cv_script_init_script      000000018004cd36 f   sf_runtime:sf_runtime.dll
 0001:0004bd3c       cv_script_init_fcn         000000018004cd3c f   sf_runtime:sf_runtime.dll
 0001:0004bd42       sf_debug_reset_current_state_configuration 000000018004cd42 f   sf_runtime:sf_runtime.dll
 0001:0004bd48       sf_debug_check_for_state_inconsistency 000000018004cd48 f   sf_runtime:sf_runtime.dll
 0001:0004bd4e       sf_debug_set_chart_data_props 000000018004cd4e f   sf_runtime:sf_runtime.dll
 0001:0004bd54       sf_debug_set_chart_data_compiled_props 000000018004cd54 f   sf_runtime:sf_runtime.dll
 0001:0004bd5a       sf_debug_symbol_scope_push 000000018004cd5a f   sf_runtime:sf_runtime.dll
 0001:0004bd60       sf_debug_symbol_scope_push_eml 000000018004cd60 f   sf_runtime:sf_runtime.dll
 0001:0004bd66       sf_debug_symbol_scope_pop  000000018004cd66 f   sf_runtime:sf_runtime.dll
 0001:0004bd6c       sf_debug_symbol_scope_add_eml 000000018004cd6c f   sf_runtime:sf_runtime.dll
 0001:0004bd72       sf_debug_symbol_scope_add_eml_importable 000000018004cd72 f   sf_runtime:sf_runtime.dll
 0001:0004bd78       sf_debug_symbol_scope_add_eml_dyn_importable 000000018004cd78 f   sf_runtime:sf_runtime.dll
 0001:0004bd7e       sf_debug_set_instance_data_value_ptr 000000018004cd7e f   sf_runtime:sf_runtime.dll
 0001:0004bd84       sf_debug_set_chart_disable_implicit_casting 000000018004cd84 f   sf_runtime:sf_runtime.dll
 0001:0004bd8a       sf_debug_set_chart_event_thresholds 000000018004cd8a f   sf_runtime:sf_runtime.dll
 0001:0004bd90       sf_debug_set_chart_state_info 000000018004cd90 f   sf_runtime:sf_runtime.dll
 0001:0004bd96       sf_debug_set_chart_decomposition 000000018004cd96 f   sf_runtime:sf_runtime.dll
 0001:0004bd9c       sf_debug_set_chart_substate_count 000000018004cd9c f   sf_runtime:sf_runtime.dll
 0001:0004bda2       sf_debug_dim_size_geq_check 000000018004cda2 f   sf_runtime:sf_runtime.dll
 0001:0004bda8       sf_debug_data_range_wrapper 000000018004cda8 f   sf_runtime:sf_runtime.dll
 0001:0004bdae       sf_debug_cv_init_trans     000000018004cdae f   sf_runtime:sf_runtime.dll
 0001:0004bdb4       sf_debug_cv_init_chart     000000018004cdb4 f   sf_runtime:sf_runtime.dll
 0001:0004bdba       sf_debug_cv_init_state     000000018004cdba f   sf_runtime:sf_runtime.dll
 0001:0004bdc0       sf_debug_get_script_id     000000018004cdc0 f   sf_runtime:sf_runtime.dll
 0001:0004bdc6       sf_debug_set_script_translation 000000018004cdc6 f   sf_runtime:sf_runtime.dll
 0001:0004bdcc       cv_eval_relational         000000018004cdcc f   sf_runtime:sf_runtime.dll
 0001:0004bdd2       cv_eml_init_relational     000000018004cdd2 f   sf_runtime:sf_runtime.dll
 0001:0004bdd8       cv_script_init_if          000000018004cdd8 f   sf_runtime:sf_runtime.dll
 0001:0004bdde       sf_debug_symbol_switch     000000018004cdde f   sf_runtime:sf_runtime.dll
 0001:0004bde4       sf_get_ChartInfoStruct_CodeGen 000000018004cde4 f   sf_runtime:sf_runtime.dll
 0001:0004bdea       sf_get_isEnhancedMooreMachine 000000018004cdea f   sf_runtime:sf_runtime.dll
 0001:0004bdf0       sf_set_compiledInfo        000000018004cdf0 f   sf_runtime:sf_runtime.dll
 0001:0004bdf6       callMdlMethodAndReportError 000000018004cdf6 f   sf_runtime:sf_runtime.dll
 0001:0004bdfc       call_sf_machine_global_method_dispatcher 000000018004cdfc f   sf_runtime:sf_runtime.dll
 0001:0004be02       sf_mex_error_direct_call   000000018004ce02 f   sf_runtime:sf_runtime.dll
 0001:0004be08       sf_clear_error_manager_info 000000018004ce08 f   sf_runtime:sf_runtime.dll
 0001:0004be0e       sf_debug_create_debug_instance_struct 000000018004ce0e f   sf_runtime:sf_runtime.dll
 0001:0004be14       sf_debug_terminate         000000018004ce14 f   sf_runtime:sf_runtime.dll
 0001:0004be1a       sf_debug_api               000000018004ce1a f   sf_runtime:sf_runtime.dll
 0001:0004be20       sf_mex_addfield            000000018004ce20 f   sf_runtime:sf_runtime.dll
 0001:0004be26       sf_mex_createstruct        000000018004ce26 f   sf_runtime:sf_runtime.dll
 0001:0004be2c       cv_script_init_relational  000000018004ce2c f   sf_runtime:sf_runtime.dll
 0001:0004be32       cv_script_init_switch      000000018004ce32 f   sf_runtime:sf_runtime.dll
 0001:0004be38       mxIsChar                   000000018004ce38 f   libmx:libmx.dll
 0001:0004be3e       mxGetPr                    000000018004ce3e f   libmx:libmx.dll
 0001:0004be44       mxGetScalar                000000018004ce44 f   libmx:libmx.dll
 0001:0004be4a       mxDestroyArray             000000018004ce4a f   libmx:libmx.dll
 0001:0004be50       mxCreateDoubleMatrix_730   000000018004ce50 f   libmx:libmx.dll
 0001:0004be56       mxGetString_730            000000018004ce56 f   libmx:libmx.dll
 0001:0004be5c       mxDuplicateArray           000000018004ce5c f   libmx:libmx.dll
 0001:0004be62       mxIsEmpty                  000000018004ce62 f   libmx:libmx.dll
 0001:0004be68       mxSetField_730             000000018004ce68 f   libmx:libmx.dll
 0001:0004be6e       mxCreateDoubleScalar       000000018004ce6e f   libmx:libmx.dll
 0001:0004be74       mxCreateString             000000018004ce74 f   libmx:libmx.dll
 0001:0004be7a       mxCreateCellMatrix_730     000000018004ce7a f   libmx:libmx.dll
 0001:0004be80       mxCreateCellArray_730      000000018004ce80 f   libmx:libmx.dll
 0001:0004be86       mxCreateStructMatrix_730   000000018004ce86 f   libmx:libmx.dll
 0001:0004be8c       mxCreateStructArray_730    000000018004ce8c f   libmx:libmx.dll
 0001:0004be92       mxGetNaN                   000000018004ce92 f   libmx:libmx.dll
 0001:0004be98       mxCalloc                   000000018004ce98 f   libmx:libmx.dll
 0001:0004be9e       mxGetM                     000000018004ce9e f   libmx:libmx.dll
 0001:0004bea4       mxGetClassID               000000018004cea4 f   libmx:libmx.dll
 0001:0004beaa       mxIsNumeric                000000018004ceaa f   libmx:libmx.dll
 0001:0004beb0       mxIsComplex                000000018004ceb0 f   libmx:libmx.dll
 0001:0004beb6       mxGetN                     000000018004ceb6 f   libmx:libmx.dll
 0001:0004bebc       mexMakeArrayPersistent     000000018004cebc f   libmex:libmex.dll
 0001:0004bec2       mexErrMsgTxt               000000018004cec2 f   libmex:libmex.dll
 0001:0004bec8       mexWarnMsgTxt              000000018004cec8 f   libmex:libmex.dll
 0001:0004bece       mexCallMATLABWithObject    000000018004cece f   libmex:libmex.dll
 0001:0004bed4       mexLock                    000000018004ced4 f   libmex:libmex.dll
 0001:0004beda       mexUnlock                  000000018004ceda f   libmex:libmex.dll
 0001:0004bee0       mexIsLocked                000000018004cee0 f   libmex:libmex.dll
 0001:0004bee6       utMalloc                   000000018004cee6 f   libut:libut.dll
 0001:0004beec       utFree                     000000018004ceec f   libut:libut.dll
 0001:0004bef2       muDoubleScalarAbs          000000018004cef2 f   libmwmathutil:libmwmathutil.dll
 0001:0004bef8       muDoubleScalarFloor        000000018004cef8 f   libmwmathutil:libmwmathutil.dll
 0001:0004befe       muDoubleScalarRound        000000018004cefe f   libmwmathutil:libmwmathutil.dll
 0001:0004bf04       muDoubleScalarIsNaN        000000018004cf04 f   libmwmathutil:libmwmathutil.dll
 0001:0004bf0a       muDoubleScalarIsInf        000000018004cf0a f   libmwmathutil:libmwmathutil.dll
 0001:0004bf10       muDoubleScalarCos          000000018004cf10 f   libmwmathutil:libmwmathutil.dll
 0001:0004bf16       muDoubleScalarSin          000000018004cf16 f   libmwmathutil:libmwmathutil.dll
 0001:0004bf1c       muDoubleScalarAsin         000000018004cf1c f   libmwmathutil:libmwmathutil.dll
 0001:0004bf22       muDoubleScalarAtan2        000000018004cf22 f   libmwmathutil:libmwmathutil.dll
 0001:0004bf28       muDoubleScalarSqrt         000000018004cf28 f   libmwmathutil:libmwmathutil.dll
 0001:0004bf2e       muDoubleScalarMax          000000018004cf2e f   libmwmathutil:libmwmathutil.dll
 0001:0004bf34       muDoubleScalarMin          000000018004cf34 f   libmwmathutil:libmwmathutil.dll
 0001:0004bf3a       emlrtNameCaptureMxArrayR2016a 000000018004cf3a f   libemlrt:libemlrt.dll
 0001:0004bf40       __GSHandlerCheck           000000018004cf40 f   MSVCRT:_gshandler_.obj
 0001:0004bf60       __GSHandlerCheckCommon     000000018004cf60 f   MSVCRT:_gshandler_.obj
 0001:0004bfd0       __security_check_cookie    000000018004cfd0 f   MSVCRT:_amdsecgs_.obj
 0001:0004c010       _alloca_probe              000000018004d010 f   MSVCRT:_chkstk_.obj
 0001:0004c010       __chkstk                   000000018004d010 f   MSVCRT:_chkstk_.obj
 0001:0004c3b0       _CRT_INIT                  000000018004d3b0 f   MSVCRT:dll_dllmain.obj
 0001:0004c3b8       _DllMainCRTStartup         000000018004d3b8 f   MSVCRT:dll_dllmain.obj
 0001:0004c3f8       __raise_securityfailure    000000018004d3f8 f   MSVCRT:gs_report.obj
 0001:0004c42c       __report_gsfailure         000000018004d42c f   MSVCRT:gs_report.obj
 0001:0004c500       __report_rangecheckfailure 000000018004d500 f   MSVCRT:gs_report.obj
 0001:0004c514       __report_securityfailure   000000018004d514 f   MSVCRT:gs_report.obj
 0001:0004c5b0       __report_securityfailureEx 000000018004d5b0 f   MSVCRT:gs_report.obj
 0001:0004c7a4       ??$__crt_fast_decode_pointer@PEAP6AXXZ@@YAPEAP6AXXZQEAP6AXXZ@Z 000000018004d7a4 f i MSVCRT:utility.obj
 0001:0004c7bc       ??$__crt_fast_encode_pointer@PEAP6AXXZ@@YAPEAP6AXXZQEAP6AXXZ@Z 000000018004d7bc f i MSVCRT:utility.obj
 0001:0004c7dc       ?__crt_rotate_pointer_value@@YA_K_KH@Z 000000018004d7dc f i MSVCRT:utility.obj
 0001:0004c7e8       ?configure_argv@__scrt_narrow_argv_policy@@SAHXZ 000000018004d7e8 f i MSVCRT:utility.obj
 0001:0004c878       NtCurrentTeb               000000018004d878 f i MSVCRT:utility.obj
 0001:0004c884       __scrt_acquire_startup_lock 000000018004d884 f   MSVCRT:utility.obj
 0001:0004c8c0       __scrt_dllmain_after_initialize_c 000000018004d8c0 f   MSVCRT:utility.obj
 0001:0004c8f4       __scrt_dllmain_before_initialize_c 000000018004d8f4 f   MSVCRT:utility.obj
 0001:0004c90c       __scrt_dllmain_crt_thread_attach 000000018004d90c f   MSVCRT:utility.obj
 0001:0004c934       __scrt_dllmain_crt_thread_detach 000000018004d934 f   MSVCRT:utility.obj
 0001:0004c94c       __scrt_dllmain_exception_filter 000000018004d94c f   MSVCRT:utility.obj
 0001:0004c9b0       __scrt_dllmain_uninitialize_c 000000018004d9b0 f   MSVCRT:utility.obj
 0001:0004c9e0       __scrt_dllmain_uninitialize_critical 000000018004d9e0 f   MSVCRT:utility.obj
 0001:0004c9f4       __scrt_initialize_crt      000000018004d9f4 f   MSVCRT:utility.obj
 0001:0004ca40       __scrt_initialize_onexit_tables 000000018004da40 f   MSVCRT:utility.obj
 0001:0004cb0c       __scrt_is_nonwritable_in_current_image 000000018004db0c f   MSVCRT:utility.obj
 0001:0004cba8       __scrt_release_startup_lock 000000018004dba8 f   MSVCRT:utility.obj
 0001:0004cbcc       __scrt_uninitialize_crt    000000018004dbcc f   MSVCRT:utility.obj
 0001:0004cbf8       _onexit                    000000018004dbf8 f   MSVCRT:utility.obj
 0001:0004cc48       at_quick_exit              000000018004dc48 f   MSVCRT:utility.obj
 0001:0004cc80       atexit                     000000018004dc80 f   MSVCRT:utility.obj
 0001:0004cc98       __security_init_cookie     000000018004dc98 f   MSVCRT:gs_support.obj
 0001:0004cd44       DllMain                    000000018004dd44 f   MSVCRT:dll_dllmain_stub.obj
 0001:0004cd68       ?__scrt_initialize_type_info@@YAXXZ 000000018004dd68 f   MSVCRT:tncleanup.obj
 0001:0004cd78       ?__scrt_uninitialize_type_info@@YAXXZ 000000018004dd78 f   MSVCRT:tncleanup.obj
 0001:0004cd84       __local_stdio_scanf_options 000000018004dd84 f i MSVCRT:default_local_stdio_options.obj
 0001:0004cd8c       __scrt_initialize_default_local_stdio_options 000000018004dd8c f   MSVCRT:default_local_stdio_options.obj
 0001:0004cda8       __scrt_get_dyn_tls_init_callback 000000018004dda8 f   MSVCRT:dyn_tls_init.obj
 0001:0004cdb0       __crt_debugger_hook        000000018004ddb0 f   MSVCRT:utility_desktop.obj
 0001:0004cdb8       __scrt_fastfail            000000018004ddb8 f   MSVCRT:utility_desktop.obj
 0001:0004cf00       __scrt_get_show_window_mode 000000018004df00 f   MSVCRT:utility_desktop.obj
 0001:0004cf3c       __scrt_initialize_winrt    000000018004df3c f   MSVCRT:utility_desktop.obj
 0001:0004cf40       __scrt_is_managed_app      000000018004df40 f   MSVCRT:utility_desktop.obj
 0001:0004cf94       __scrt_set_unhandled_exception_filter 000000018004df94 f   MSVCRT:utility_desktop.obj
 0001:0004cfa4       __scrt_unhandled_exception_filter 000000018004dfa4 f   MSVCRT:utility_desktop.obj
 0001:0004cfdc       _RTC_Initialize            000000018004dfdc f   MSVCRT:_initsect_.obj
 0001:0004d028       _RTC_Terminate             000000018004e028 f   MSVCRT:_initsect_.obj
 0001:0004d074       _guard_check_icall         000000018004e074 f i MSVCRT:checkcfg.obj
 0001:0004d07c       __isa_available_init       000000018004e07c f   MSVCRT:_cpu_disp_.obj
 0001:0004d244       _get_startup_argv_mode     000000018004e244 f   MSVCRT:argv_mode.obj
 0001:0004d24c       __scrt_is_ucrt_dll_in_use  000000018004e24c f   MSVCRT:ucrt_detection.obj
 0001:0004d258       _guard_check_icall_nop     000000018004e258 f i MSVCRT:guard_support.obj
 0001:0004d25c       _guard_icall_checks_enforced 000000018004e25c f i MSVCRT:guard_support.obj
 0001:0004d280       RtlCaptureContext          000000018004e280 f   kernel32:KERNEL32.dll
 0001:0004d286       RtlLookupFunctionEntry     000000018004e286 f   kernel32:KERNEL32.dll
 0001:0004d28c       RtlVirtualUnwind           000000018004e28c f   kernel32:KERNEL32.dll
 0001:0004d292       UnhandledExceptionFilter   000000018004e292 f   kernel32:KERNEL32.dll
 0001:0004d298       SetUnhandledExceptionFilter 000000018004e298 f   kernel32:KERNEL32.dll
 0001:0004d29e       GetCurrentProcess          000000018004e29e f   kernel32:KERNEL32.dll
 0001:0004d2a4       TerminateProcess           000000018004e2a4 f   kernel32:KERNEL32.dll
 0001:0004d2aa       IsProcessorFeaturePresent  000000018004e2aa f   kernel32:KERNEL32.dll
 0001:0004d2b0       QueryPerformanceCounter    000000018004e2b0 f   kernel32:KERNEL32.dll
 0001:0004d2b6       GetCurrentProcessId        000000018004e2b6 f   kernel32:KERNEL32.dll
 0001:0004d2bc       GetCurrentThreadId         000000018004e2bc f   kernel32:KERNEL32.dll
 0001:0004d2c2       GetSystemTimeAsFileTime    000000018004e2c2 f   kernel32:KERNEL32.dll
 0001:0004d2c8       DisableThreadLibraryCalls  000000018004e2c8 f   kernel32:KERNEL32.dll
 0001:0004d2ce       InitializeSListHead        000000018004e2ce f   kernel32:KERNEL32.dll
 0001:0004d2d4       IsDebuggerPresent          000000018004e2d4 f   kernel32:KERNEL32.dll
 0001:0004d2da       GetStartupInfoW            000000018004e2da f   kernel32:KERNEL32.dll
 0001:0004d2e0       GetModuleHandleW           000000018004e2e0 f   kernel32:KERNEL32.dll
 0001:0004d2e6       memcpy                     000000018004e2e6 f   vcruntime:VCRUNTIME140.dll
 0001:0004d2ec       memset                     000000018004e2ec f   vcruntime:VCRUNTIME140.dll
 0001:0004d2f2       __C_specific_handler       000000018004e2f2 f   vcruntime:VCRUNTIME140.dll
 0001:0004d2f8       __std_type_info_destroy_list 000000018004e2f8 f   vcruntime:VCRUNTIME140.dll
 0001:0004d2fe       strcmp                     000000018004e2fe f   ucrt:api-ms-win-crt-string-l1-1-0.dll
 0001:0004d304       frexp                      000000018004e304 f   ucrt:api-ms-win-crt-math-l1-1-0.dll
 0001:0004d30a       ldexp                      000000018004e30a f   ucrt:api-ms-win-crt-math-l1-1-0.dll
 0001:0004d310       free                       000000018004e310 f   ucrt:api-ms-win-crt-heap-l1-1-0.dll
 0001:0004d316       malloc                     000000018004e316 f   ucrt:api-ms-win-crt-heap-l1-1-0.dll
 0001:0004d31c       __stdio_common_vsprintf    000000018004e31c f   ucrt:api-ms-win-crt-stdio-l1-1-0.dll
 0001:0004d322       cos                        000000018004e322 f   ucrt:api-ms-win-crt-math-l1-1-0.dll
 0001:0004d328       sin                        000000018004e328 f   ucrt:api-ms-win-crt-math-l1-1-0.dll
 0001:0004d32e       _initterm                  000000018004e32e f   ucrt:api-ms-win-crt-runtime-l1-1-0.dll
 0001:0004d334       _initterm_e                000000018004e334 f   ucrt:api-ms-win-crt-runtime-l1-1-0.dll
 0001:0004d33a       _seh_filter_dll            000000018004e33a f   ucrt:api-ms-win-crt-runtime-l1-1-0.dll
 0001:0004d340       _configure_narrow_argv     000000018004e340 f   ucrt:api-ms-win-crt-runtime-l1-1-0.dll
 0001:0004d346       _initialize_narrow_environment 000000018004e346 f   ucrt:api-ms-win-crt-runtime-l1-1-0.dll
 0001:0004d34c       _initialize_onexit_table   000000018004e34c f   ucrt:api-ms-win-crt-runtime-l1-1-0.dll
 0001:0004d352       _register_onexit_function  000000018004e352 f   ucrt:api-ms-win-crt-runtime-l1-1-0.dll
 0001:0004d358       _execute_onexit_table      000000018004e358 f   ucrt:api-ms-win-crt-runtime-l1-1-0.dll
 0001:0004d35e       _crt_atexit                000000018004e35e f   ucrt:api-ms-win-crt-runtime-l1-1-0.dll
 0001:0004d364       _crt_at_quick_exit         000000018004e364 f   ucrt:api-ms-win-crt-runtime-l1-1-0.dll
 0001:0004d36a       _cexit                     000000018004e36a f   ucrt:api-ms-win-crt-runtime-l1-1-0.dll
 0001:0004d370       terminate                  000000018004e370 f   ucrt:api-ms-win-crt-runtime-l1-1-0.dll
 0001:0004d378       __scrt_stub_for_acrt_initialize 000000018004e378 f   MSVCRT:ucrt_stubs.obj
 0001:0004d378       __acrt_initialize          000000018004e378 f   MSVCRT:ucrt_stubs.obj
 0001:0004d378       __vcrt_initialize          000000018004e378 f   MSVCRT:ucrt_stubs.obj
 0001:0004d37c       __acrt_thread_attach       000000018004e37c f   MSVCRT:ucrt_stubs.obj
 0001:0004d37c       __scrt_stub_for_acrt_thread_attach 000000018004e37c f   MSVCRT:ucrt_stubs.obj
 0001:0004d37c       __vcrt_thread_attach       000000018004e37c f   MSVCRT:ucrt_stubs.obj
 0001:0004d380       __acrt_thread_detach       000000018004e380 f   MSVCRT:ucrt_stubs.obj
 0001:0004d380       __vcrt_thread_detach       000000018004e380 f   MSVCRT:ucrt_stubs.obj
 0001:0004d380       __scrt_stub_for_acrt_thread_detach 000000018004e380 f   MSVCRT:ucrt_stubs.obj
 0001:0004d384       __acrt_uninitialize        000000018004e384 f   MSVCRT:ucrt_stubs.obj
 0001:0004d384       __scrt_stub_for_acrt_uninitialize 000000018004e384 f   MSVCRT:ucrt_stubs.obj
 0001:0004d384       __vcrt_uninitialize        000000018004e384 f   MSVCRT:ucrt_stubs.obj
 0001:0004d388       __vcrt_uninitialize_critical 000000018004e388 f   MSVCRT:ucrt_stubs.obj
 0001:0004d388       __scrt_stub_for_acrt_uninitialize_critical 000000018004e388 f   MSVCRT:ucrt_stubs.obj
 0001:0004d388       __acrt_uninitialize_critical 000000018004e388 f   MSVCRT:ucrt_stubs.obj
 0001:0004d38c       _is_c_termination_complete 000000018004e38c f   MSVCRT:ucrt_stubs.obj
 0001:0004d38c       __scrt_stub_for_is_c_termination_complete 000000018004e38c f   MSVCRT:ucrt_stubs.obj
 0001:0004d3a0       _guard_dispatch_icall_nop  000000018004e3a0 f   MSVCRT:_guard_dispatch_.obj
 0002:00000000       __imp_DisableThreadLibraryCalls 000000018004f000     kernel32:KERNEL32.dll
 0002:00000008       __imp_RtlCaptureContext    000000018004f008     kernel32:KERNEL32.dll
 0002:00000010       __imp_GetCurrentProcess    000000018004f010     kernel32:KERNEL32.dll
 0002:00000018       __imp_TerminateProcess     000000018004f018     kernel32:KERNEL32.dll
 0002:00000020       __imp_RtlLookupFunctionEntry 000000018004f020     kernel32:KERNEL32.dll
 0002:00000028       __imp_IsProcessorFeaturePresent 000000018004f028     kernel32:KERNEL32.dll
 0002:00000030       __imp_QueryPerformanceCounter 000000018004f030     kernel32:KERNEL32.dll
 0002:00000038       __imp_GetCurrentProcessId  000000018004f038     kernel32:KERNEL32.dll
 0002:00000040       __imp_GetCurrentThreadId   000000018004f040     kernel32:KERNEL32.dll
 0002:00000048       __imp_GetSystemTimeAsFileTime 000000018004f048     kernel32:KERNEL32.dll
 0002:00000050       __imp_InitializeSListHead  000000018004f050     kernel32:KERNEL32.dll
 0002:00000058       __imp_IsDebuggerPresent    000000018004f058     kernel32:KERNEL32.dll
 0002:00000060       __imp_GetStartupInfoW      000000018004f060     kernel32:KERNEL32.dll
 0002:00000068       __imp_GetModuleHandleW     000000018004f068     kernel32:KERNEL32.dll
 0002:00000070       __imp_UnhandledExceptionFilter 000000018004f070     kernel32:KERNEL32.dll
 0002:00000078       __imp_SetUnhandledExceptionFilter 000000018004f078     kernel32:KERNEL32.dll
 0002:00000080       __imp_RtlVirtualUnwind     000000018004f080     kernel32:KERNEL32.dll
 0002:00000088       \177KERNEL32_NULL_THUNK_DATA 000000018004f088     kernel32:KERNEL32.dll
 0002:00000090       __imp_memcpy               000000018004f090     vcruntime:VCRUNTIME140.dll
 0002:00000098       __imp___C_specific_handler 000000018004f098     vcruntime:VCRUNTIME140.dll
 0002:000000a0       __imp___std_type_info_destroy_list 000000018004f0a0     vcruntime:VCRUNTIME140.dll
 0002:000000a8       __imp_memset               000000018004f0a8     vcruntime:VCRUNTIME140.dll
 0002:000000b0       \177VCRUNTIME140_NULL_THUNK_DATA 000000018004f0b0     vcruntime:VCRUNTIME140.dll
 0002:000000b8       __imp_malloc               000000018004f0b8     ucrt:api-ms-win-crt-heap-l1-1-0.dll
 0002:000000c0       __imp_free                 000000018004f0c0     ucrt:api-ms-win-crt-heap-l1-1-0.dll
 0002:000000c8       \177api-ms-win-crt-heap-l1-1-0_NULL_THUNK_DATA 000000018004f0c8     ucrt:api-ms-win-crt-heap-l1-1-0.dll
 0002:000000d0       __imp_sin                  000000018004f0d0     ucrt:api-ms-win-crt-math-l1-1-0.dll
 0002:000000d8       __imp_frexp                000000018004f0d8     ucrt:api-ms-win-crt-math-l1-1-0.dll
 0002:000000e0       __imp_cos                  000000018004f0e0     ucrt:api-ms-win-crt-math-l1-1-0.dll
 0002:000000e8       __imp_ldexp                000000018004f0e8     ucrt:api-ms-win-crt-math-l1-1-0.dll
 0002:000000f0       \177api-ms-win-crt-math-l1-1-0_NULL_THUNK_DATA 000000018004f0f0     ucrt:api-ms-win-crt-math-l1-1-0.dll
 0002:000000f8       __imp__seh_filter_dll      000000018004f0f8     ucrt:api-ms-win-crt-runtime-l1-1-0.dll
 0002:00000100       __imp__initialize_narrow_environment 000000018004f100     ucrt:api-ms-win-crt-runtime-l1-1-0.dll
 0002:00000108       __imp__initialize_onexit_table 000000018004f108     ucrt:api-ms-win-crt-runtime-l1-1-0.dll
 0002:00000110       __imp__register_onexit_function 000000018004f110     ucrt:api-ms-win-crt-runtime-l1-1-0.dll
 0002:00000118       __imp__execute_onexit_table 000000018004f118     ucrt:api-ms-win-crt-runtime-l1-1-0.dll
 0002:00000120       __imp__crt_atexit          000000018004f120     ucrt:api-ms-win-crt-runtime-l1-1-0.dll
 0002:00000128       __imp__crt_at_quick_exit   000000018004f128     ucrt:api-ms-win-crt-runtime-l1-1-0.dll
 0002:00000130       __imp__cexit               000000018004f130     ucrt:api-ms-win-crt-runtime-l1-1-0.dll
 0002:00000138       __imp_terminate            000000018004f138     ucrt:api-ms-win-crt-runtime-l1-1-0.dll
 0002:00000140       __imp__initterm_e          000000018004f140     ucrt:api-ms-win-crt-runtime-l1-1-0.dll
 0002:00000148       __imp__initterm            000000018004f148     ucrt:api-ms-win-crt-runtime-l1-1-0.dll
 0002:00000150       __imp__configure_narrow_argv 000000018004f150     ucrt:api-ms-win-crt-runtime-l1-1-0.dll
 0002:00000158       \177api-ms-win-crt-runtime-l1-1-0_NULL_THUNK_DATA 000000018004f158     ucrt:api-ms-win-crt-runtime-l1-1-0.dll
 0002:00000160       __imp___stdio_common_vsprintf 000000018004f160     ucrt:api-ms-win-crt-stdio-l1-1-0.dll
 0002:00000168       \177api-ms-win-crt-stdio-l1-1-0_NULL_THUNK_DATA 000000018004f168     ucrt:api-ms-win-crt-stdio-l1-1-0.dll
 0002:00000170       __imp_strcmp               000000018004f170     ucrt:api-ms-win-crt-string-l1-1-0.dll
 0002:00000178       \177api-ms-win-crt-string-l1-1-0_NULL_THUNK_DATA 000000018004f178     ucrt:api-ms-win-crt-string-l1-1-0.dll
 0002:00000180       __imp_emlrtNameCaptureMxArrayR2016a 000000018004f180     libemlrt:libemlrt.dll
 0002:00000188       \177libemlrt_NULL_THUNK_DATA 000000018004f188     libemlrt:libemlrt.dll
 0002:00000190       __imp_mexErrMsgTxt         000000018004f190     libmex:libmex.dll
 0002:00000198       __imp_mexWarnMsgTxt        000000018004f198     libmex:libmex.dll
 0002:000001a0       __imp_mexCallMATLABWithObject 000000018004f1a0     libmex:libmex.dll
 0002:000001a8       __imp_mexLock              000000018004f1a8     libmex:libmex.dll
 0002:000001b0       __imp_mexUnlock            000000018004f1b0     libmex:libmex.dll
 0002:000001b8       __imp_mexIsLocked          000000018004f1b8     libmex:libmex.dll
 0002:000001c0       __imp_mexMakeArrayPersistent 000000018004f1c0     libmex:libmex.dll
 0002:000001c8       \177libmex_NULL_THUNK_DATA 000000018004f1c8     libmex:libmex.dll
 0002:000001d0       __imp_muDoubleScalarIsInf  000000018004f1d0     libmwmathutil:libmwmathutil.dll
 0002:000001d8       __imp_muDoubleScalarIsNaN  000000018004f1d8     libmwmathutil:libmwmathutil.dll
 0002:000001e0       __imp_muDoubleScalarRound  000000018004f1e0     libmwmathutil:libmwmathutil.dll
 0002:000001e8       __imp_muDoubleScalarFloor  000000018004f1e8     libmwmathutil:libmwmathutil.dll
 0002:000001f0       __imp_muDoubleScalarAbs    000000018004f1f0     libmwmathutil:libmwmathutil.dll
 0002:000001f8       __imp_muDoubleScalarSin    000000018004f1f8     libmwmathutil:libmwmathutil.dll
 0002:00000200       __imp_muDoubleScalarAsin   000000018004f200     libmwmathutil:libmwmathutil.dll
 0002:00000208       __imp_muDoubleScalarAtan2  000000018004f208     libmwmathutil:libmwmathutil.dll
 0002:00000210       __imp_muDoubleScalarSqrt   000000018004f210     libmwmathutil:libmwmathutil.dll
 0002:00000218       __imp_muDoubleScalarMax    000000018004f218     libmwmathutil:libmwmathutil.dll
 0002:00000220       __imp_muDoubleScalarMin    000000018004f220     libmwmathutil:libmwmathutil.dll
 0002:00000228       __imp_muDoubleScalarCos    000000018004f228     libmwmathutil:libmwmathutil.dll
 0002:00000230       \177libmwmathutil_NULL_THUNK_DATA 000000018004f230     libmwmathutil:libmwmathutil.dll
 0002:00000238       __imp_mxGetN               000000018004f238     libmx:libmx.dll
 0002:00000240       __imp_mxIsComplex          000000018004f240     libmx:libmx.dll
 0002:00000248       __imp_mxIsNumeric          000000018004f248     libmx:libmx.dll
 0002:00000250       __imp_mxGetClassID         000000018004f250     libmx:libmx.dll
 0002:00000258       __imp_mxGetM               000000018004f258     libmx:libmx.dll
 0002:00000260       __imp_mxCalloc             000000018004f260     libmx:libmx.dll
 0002:00000268       __imp_mxGetNaN             000000018004f268     libmx:libmx.dll
 0002:00000270       __imp_mxCreateStructArray_730 000000018004f270     libmx:libmx.dll
 0002:00000278       __imp_mxCreateStructMatrix_730 000000018004f278     libmx:libmx.dll
 0002:00000280       __imp_mxCreateCellArray_730 000000018004f280     libmx:libmx.dll
 0002:00000288       __imp_mxCreateCellMatrix_730 000000018004f288     libmx:libmx.dll
 0002:00000290       __imp_mxCreateString       000000018004f290     libmx:libmx.dll
 0002:00000298       __imp_mxCreateDoubleScalar 000000018004f298     libmx:libmx.dll
 0002:000002a0       __imp_mxSetField_730       000000018004f2a0     libmx:libmx.dll
 0002:000002a8       __imp_mxIsEmpty            000000018004f2a8     libmx:libmx.dll
 0002:000002b0       __imp_mxDuplicateArray     000000018004f2b0     libmx:libmx.dll
 0002:000002b8       __imp_mxGetString_730      000000018004f2b8     libmx:libmx.dll
 0002:000002c0       __imp_mxCreateDoubleMatrix_730 000000018004f2c0     libmx:libmx.dll
 0002:000002c8       __imp_mxDestroyArray       000000018004f2c8     libmx:libmx.dll
 0002:000002d0       __imp_mxGetScalar          000000018004f2d0     libmx:libmx.dll
 0002:000002d8       __imp_mxGetPr              000000018004f2d8     libmx:libmx.dll
 0002:000002e0       __imp_mxIsChar             000000018004f2e0     libmx:libmx.dll
 0002:000002e8       \177libmx_NULL_THUNK_DATA  000000018004f2e8     libmx:libmx.dll
 0002:000002f0       __imp_utMalloc             000000018004f2f0     libut:libut.dll
 0002:000002f8       __imp_utFree               000000018004f2f8     libut:libut.dll
 0002:00000300       \177libut_NULL_THUNK_DATA  000000018004f300     libut:libut.dll
 0002:00000308       __imp_sf_mex_createstruct  000000018004f308     sf_runtime:sf_runtime.dll
 0002:00000310       __imp_sf_mex_addfield      000000018004f310     sf_runtime:sf_runtime.dll
 0002:00000318       __imp_sf_debug_api         000000018004f318     sf_runtime:sf_runtime.dll
 0002:00000320       __imp_sf_debug_terminate   000000018004f320     sf_runtime:sf_runtime.dll
 0002:00000328       __imp_sf_debug_create_debug_instance_struct 000000018004f328     sf_runtime:sf_runtime.dll
 0002:00000330       __imp_sf_clear_error_manager_info 000000018004f330     sf_runtime:sf_runtime.dll
 0002:00000338       __imp_sf_mex_error_direct_call 000000018004f338     sf_runtime:sf_runtime.dll
 0002:00000340       __imp_call_sf_machine_global_method_dispatcher 000000018004f340     sf_runtime:sf_runtime.dll
 0002:00000348       __imp_callMdlMethodAndReportError 000000018004f348     sf_runtime:sf_runtime.dll
 0002:00000350       __imp_sf_set_compiledInfo  000000018004f350     sf_runtime:sf_runtime.dll
 0002:00000358       __imp_sf_get_isEnhancedMooreMachine 000000018004f358     sf_runtime:sf_runtime.dll
 0002:00000360       __imp_sf_get_ChartInfoStruct_CodeGen 000000018004f360     sf_runtime:sf_runtime.dll
 0002:00000368       __imp_sf_debug_symbol_switch 000000018004f368     sf_runtime:sf_runtime.dll
 0002:00000370       __imp_cv_script_init_relational 000000018004f370     sf_runtime:sf_runtime.dll
 0002:00000378       __imp_cv_eml_init_relational 000000018004f378     sf_runtime:sf_runtime.dll
 0002:00000380       __imp_cv_eval_relational   000000018004f380     sf_runtime:sf_runtime.dll
 0002:00000388       __imp_sf_debug_set_script_translation 000000018004f388     sf_runtime:sf_runtime.dll
 0002:00000390       __imp_sf_debug_get_script_id 000000018004f390     sf_runtime:sf_runtime.dll
 0002:00000398       __imp_sf_debug_cv_init_state 000000018004f398     sf_runtime:sf_runtime.dll
 0002:000003a0       __imp_sf_debug_cv_init_chart 000000018004f3a0     sf_runtime:sf_runtime.dll
 0002:000003a8       __imp_sf_debug_cv_init_trans 000000018004f3a8     sf_runtime:sf_runtime.dll
 0002:000003b0       __imp_sf_debug_data_range_wrapper 000000018004f3b0     sf_runtime:sf_runtime.dll
 0002:000003b8       __imp_sf_debug_dim_size_geq_check 000000018004f3b8     sf_runtime:sf_runtime.dll
 0002:000003c0       __imp_sf_debug_set_chart_substate_count 000000018004f3c0     sf_runtime:sf_runtime.dll
 0002:000003c8       __imp_sf_debug_set_chart_decomposition 000000018004f3c8     sf_runtime:sf_runtime.dll
 0002:000003d0       __imp_sf_debug_set_chart_state_info 000000018004f3d0     sf_runtime:sf_runtime.dll
 0002:000003d8       __imp_sf_debug_set_chart_event_thresholds 000000018004f3d8     sf_runtime:sf_runtime.dll
 0002:000003e0       __imp_sf_debug_set_chart_disable_implicit_casting 000000018004f3e0     sf_runtime:sf_runtime.dll
 0002:000003e8       __imp_cv_script_init_switch 000000018004f3e8     sf_runtime:sf_runtime.dll
 0002:000003f0       __imp_cv_script_init_if    000000018004f3f0     sf_runtime:sf_runtime.dll
 0002:000003f8       __imp_sf_debug_set_instance_data_value_ptr 000000018004f3f8     sf_runtime:sf_runtime.dll
 0002:00000400       __imp_sf_debug_symbol_scope_add_eml_dyn_importable 000000018004f400     sf_runtime:sf_runtime.dll
 0002:00000408       __imp_sf_debug_symbol_scope_add_eml_importable 000000018004f408     sf_runtime:sf_runtime.dll
 0002:00000410       __imp_sf_debug_symbol_scope_add_eml 000000018004f410     sf_runtime:sf_runtime.dll
 0002:00000418       __imp_sf_debug_symbol_scope_pop 000000018004f418     sf_runtime:sf_runtime.dll
 0002:00000420       __imp_sf_debug_symbol_scope_push_eml 000000018004f420     sf_runtime:sf_runtime.dll
 0002:00000428       __imp_sf_debug_symbol_scope_push 000000018004f428     sf_runtime:sf_runtime.dll
 0002:00000430       __imp_sf_debug_set_chart_data_compiled_props 000000018004f430     sf_runtime:sf_runtime.dll
 0002:00000438       __imp_sf_debug_set_chart_data_props 000000018004f438     sf_runtime:sf_runtime.dll
 0002:00000440       __imp_sf_debug_check_for_state_inconsistency 000000018004f440     sf_runtime:sf_runtime.dll
 0002:00000448       __imp_sf_debug_reset_current_state_configuration 000000018004f448     sf_runtime:sf_runtime.dll
 0002:00000450       __imp_cv_script_init_fcn   000000018004f450     sf_runtime:sf_runtime.dll
 0002:00000458       __imp_cv_script_init_script 000000018004f458     sf_runtime:sf_runtime.dll
 0002:00000460       __imp_cv_script_eval       000000018004f460     sf_runtime:sf_runtime.dll
 0002:00000468       __imp_cv_eml_init_mcdc     000000018004f468     sf_runtime:sf_runtime.dll
 0002:00000470       __imp_cv_eml_init_while    000000018004f470     sf_runtime:sf_runtime.dll
 0002:00000478       __imp_cv_eml_init_if       000000018004f478     sf_runtime:sf_runtime.dll
 0002:00000480       __imp_cv_eml_init_fcn      000000018004f480     sf_runtime:sf_runtime.dll
 0002:00000488       __imp_cv_eml_init_script   000000018004f488     sf_runtime:sf_runtime.dll
 0002:00000490       __imp_cv_eml_eval          000000018004f490     sf_runtime:sf_runtime.dll
 0002:00000498       __imp_eml_debug_line_call  000000018004f498     sf_runtime:sf_runtime.dll
 0002:000004a0       __imp_sf_debug_call        000000018004f4a0     sf_runtime:sf_runtime.dll
 0002:000004a8       __imp_sf_debug_initialize_chart 000000018004f4a8     sf_runtime:sf_runtime.dll
 0002:000004b0       __imp_sf_integer_check     000000018004f4b0     sf_runtime:sf_runtime.dll
 0002:000004b8       __imp_sf_eml_array_bounds_check 000000018004f4b8     sf_runtime:sf_runtime.dll
 0002:000004c0       __imp_ssGetOutputPortSignal_wrapper 000000018004f4c0     sf_runtime:sf_runtime.dll
 0002:000004c8       __imp_ssGetInputPortSignal_wrapper 000000018004f4c8     sf_runtime:sf_runtime.dll
 0002:000004d0       __imp_ssSetCurrentOutputPortDimensions_wrapper 000000018004f4d0     sf_runtime:sf_runtime.dll
 0002:000004d8       __imp_ssGetCurrentOutputPortDimensions_wrapper 000000018004f4d8     sf_runtime:sf_runtime.dll
 0002:000004e0       __imp_sf_mex_decode_encoded_mx_struct_array 000000018004f4e0     sf_runtime:sf_runtime.dll
 0002:000004e8       __imp_sf_mex_import_vs     000000018004f4e8     sf_runtime:sf_runtime.dll
 0002:000004f0       __imp_sf_mex_import        000000018004f4f0     sf_runtime:sf_runtime.dll
 0002:000004f8       __imp_sf_mex_destroy       000000018004f4f8     sf_runtime:sf_runtime.dll
 0002:00000500       __imp_sf_mex_dup           000000018004f500     sf_runtime:sf_runtime.dll
 0002:00000508       __imp_sf_mex_assign        000000018004f508     sf_runtime:sf_runtime.dll
 0002:00000510       __imp_sf_mex_getcell       000000018004f510     sf_runtime:sf_runtime.dll
 0002:00000518       __imp_sf_mex_setcell       000000018004f518     sf_runtime:sf_runtime.dll
 0002:00000520       __imp_sf_mex_createcellmatrix 000000018004f520     sf_runtime:sf_runtime.dll
 0002:00000528       __imp_sf_mex_create        000000018004f528     sf_runtime:sf_runtime.dll
 0002:00000530       __imp_sf_mex_error_message 000000018004f530     sf_runtime:sf_runtime.dll
 0002:00000538       __imp_sf_mex_call_debug    000000018004f538     sf_runtime:sf_runtime.dll
 0002:00000540       __imp_sf_register_codegen_names_for_scoped_functions_defined_by_chart 000000018004f540     sf_runtime:sf_runtime.dll
 0002:00000548       __imp_sf_set_chart_accesses_machine_info 000000018004f548     sf_runtime:sf_runtime.dll
 0002:00000550       __imp_sf_is_first_init_cond 000000018004f550     sf_runtime:sf_runtime.dll
 0002:00000558       __imp_sf_get_time          000000018004f558     sf_runtime:sf_runtime.dll
 0002:00000560       __imp_sf_set_rtw_dwork_info 000000018004f560     sf_runtime:sf_runtime.dll
 0002:00000568       __imp_sf_clear_rtw_identifier 000000018004f568     sf_runtime:sf_runtime.dll
 0002:00000570       __imp_sf_mex_listen_for_ctrl_c_with_debugger 000000018004f570     sf_runtime:sf_runtime.dll
 0002:00000578       __imp_sim_mode_is_modelref_sim 000000018004f578     sf_runtime:sf_runtime.dll
 0002:00000580       __imp_sim_mode_is_external 000000018004f580     sf_runtime:sf_runtime.dll
 0002:00000588       __imp_sim_mode_is_rtw_gen  000000018004f588     sf_runtime:sf_runtime.dll
 0002:00000590       __imp_sf_mark_chart_expressionable_inputs 000000018004f590     sf_runtime:sf_runtime.dll
 0002:00000598       __imp_sf_mark_chart_reusable_outputs 000000018004f598     sf_runtime:sf_runtime.dll
 0002:000005a0       __imp_sf_is_chart_inlinable 000000018004f5a0     sf_runtime:sf_runtime.dll
 0002:000005a8       __imp_sf_update_buildInfo  000000018004f5a8     sf_runtime:sf_runtime.dll
 0002:000005b0       __imp_sf_rtw_info_uint_prop 000000018004f5b0     sf_runtime:sf_runtime.dll
 0002:000005b8       __imp_sf_get_chart_instance_ptr 000000018004f5b8     sf_runtime:sf_runtime.dll
 0002:000005c0       __imp_sf_free_ChartRunTimeInfo 000000018004f5c0     sf_runtime:sf_runtime.dll
 0002:000005c8       __imp_sf_init_ChartRunTimeInfo 000000018004f5c8     sf_runtime:sf_runtime.dll
 0002:000005d0       __imp_sf_debug_set_machine_data_thresholds 000000018004f5d0     sf_runtime:sf_runtime.dll
 0002:000005d8       __imp_sf_debug_set_machine_event_thresholds 000000018004f5d8     sf_runtime:sf_runtime.dll
 0002:000005e0       __imp_sf_debug_initialize_machine 000000018004f5e0     sf_runtime:sf_runtime.dll
 0002:000005e8       __imp_sf_load_rtw_optimization_info 000000018004f5e8     sf_runtime:sf_runtime.dll
 0002:000005f0       \177sf_runtime_NULL_THUNK_DATA 000000018004f5f0     sf_runtime:sf_runtime.dll
 0002:000005f8       __guard_check_icall_fptr   000000018004f5f8     MSVCRT:guard_support.obj
 0002:00000600       __guard_dispatch_icall_fptr 000000018004f600     MSVCRT:guard_support.obj
 0002:00000608       __xc_a                     000000018004f608     MSVCRT:initializers.obj
 0002:00000610       __xc_z                     000000018004f610     MSVCRT:initializers.obj
 0002:00000618       __xi_a                     000000018004f618     MSVCRT:initializers.obj
 0002:00000620       __xi_z                     000000018004f620     MSVCRT:initializers.obj
 0002:00000628       __xp_a                     000000018004f628     MSVCRT:initializers.obj
 0002:00000630       __xp_z                     000000018004f630     MSVCRT:initializers.obj
 0002:00000638       __xt_a                     000000018004f638     MSVCRT:initializers.obj
 0002:00000640       __xt_z                     000000018004f640     MSVCRT:initializers.obj
 0002:00000650       ??_C@_0BB@FLJEPEHM@sf_get_check_sum?$AA@ 000000018004f650     RightInvariant_EKF_sfun.obj
 0002:00000668       ??_C@_07MHDNFCJE@machine?$AA@ 000000018004f668     RightInvariant_EKF_sfun.obj
 0002:00000670       ??_C@_05PGKDIPIO@chart?$AA@ 000000018004f670     RightInvariant_EKF_sfun.obj
 0002:00000678       ??_C@_06JJLAMBGK@target?$AA@ 000000018004f678     RightInvariant_EKF_sfun.obj
 0002:00000680       ??_C@_0BJ@FMGCKEMJ@get_autoinheritance_info?$AA@ 000000018004f680     RightInvariant_EKF_sfun.obj
 0002:000006a0       ??_C@_0BH@DMJCPKFB@xnX6DPkXSAEgDYfsFgx1DB?$AA@ 000000018004f6a0     RightInvariant_EKF_sfun.obj
 0002:000006b8       ??_C@_0BH@KPDHADII@cDssarRYE4MmcIMu2238WF?$AA@ 000000018004f6b8     RightInvariant_EKF_sfun.obj
 0002:000006d0       ??_C@_0BH@OHMGGNNF@ZG2eaketZJedU4skUn79uC?$AA@ 000000018004f6d0     RightInvariant_EKF_sfun.obj
 0002:000006e8       ??_C@_0CA@EADCEDHE@get_eml_resolved_functions_info?$AA@ 000000018004f6e8     RightInvariant_EKF_sfun.obj
 0002:00000708       ??_C@_0BK@OHOOMENA@get_third_party_uses_info?$AA@ 000000018004f708     RightInvariant_EKF_sfun.obj
 0002:00000728       ??_C@_0BI@HBCMCLM@sM6jw19MmtVGn2AtFHugBTG?$AA@ 000000018004f728     RightInvariant_EKF_sfun.obj
 0002:00000740       ??_C@_0BI@KMKFCNOM@s68KJL4KQMPJgncb37M5v2G?$AA@ 000000018004f740     RightInvariant_EKF_sfun.obj
 0002:00000758       ??_C@_0BI@DMDHGLPE@sIsERV9pAUW4VxZZDP1pwUC?$AA@ 000000018004f758     RightInvariant_EKF_sfun.obj
 0002:00000770       ??_C@_0BG@LBHKCKOM@get_jit_fallback_info?$AA@ 000000018004f770     RightInvariant_EKF_sfun.obj
 0002:00000788       ??_C@_0BO@DEKBDHJJ@get_updateBuildInfo_args_info?$AA@ 000000018004f788     RightInvariant_EKF_sfun.obj
 0002:000007a8       ??_C@_04DAKGNGLA@sfun?$AA@ 000000018004f7a8     RightInvariant_EKF_sfun.obj
 0002:000007b0       ??_C@_0BD@FNHBMCKI@RightInvariant_EKF?$AA@ 000000018004f7b0     RightInvariant_EKF_sfun.obj
 0002:000007c4       ??_C@_06OFNJOBDK@enable?$AA@ 000000018004f7c4     c1_RightInvariant_EKF.obj
 0002:000007cc       ??_C@_01DGKLNCNG@R?$AA@    000000018004f7cc     c1_RightInvariant_EKF.obj
 0002:000007d0       ??_C@_02IIDEOLE@pL?$AA@    000000018004f7d0     c1_RightInvariant_EKF.obj
 0002:000007d4       ??_C@_01NANMIPIL@N?$AA@    000000018004f7d4     c1_RightInvariant_EKF.obj
 0002:000007d8       ??_C@_07OKCKIPNN@indices?$AA@ 000000018004f7d8     c1_RightInvariant_EKF.obj
 0002:000007e0       ??_C@_06ODCJABFF@nargin?$AA@ 000000018004f7e0     c1_RightInvariant_EKF.obj
 0002:000007e8       ??_C@_07GFKJCDMF@nargout?$AA@ 000000018004f7e8     c1_RightInvariant_EKF.obj
 0002:000007f0       ??_C@_08OAGMDKAF@position?$AA@ 000000018004f7f0     c1_RightInvariant_EKF.obj
 0002:00000800       ??_C@_0M@KPMDGEHG@orientation?$AA@ 000000018004f800     c1_RightInvariant_EKF.obj
 0002:0000080c       ??_C@_06HIBNPHJP@pulse1?$AA@ 000000018004f80c     c1_RightInvariant_EKF.obj
 0002:00000814       ??_C@_06FDDAKEFM@pulse2?$AA@ 000000018004f814     c1_RightInvariant_EKF.obj
 0002:00000820       ??_C@_09LHLABIHF@landmarks?$AA@ 000000018004f820     c1_RightInvariant_EKF.obj
 0002:0000082c       ??_C@_01MHEDDDHA@v?$AA@    000000018004f82c     c1_RightInvariant_EKF.obj
 0002:00000830       ??_C@_02JGAADCOE@Ax?$AA@   000000018004f830     c1_RightInvariant_EKF.obj
 0002:00000834       ??_C@_02CMOIPKPK@qv?$AA@   000000018004f834     c1_RightInvariant_EKF.obj
 0002:00000838       ??_C@_02DFPDMLLL@qw?$AA@   000000018004f838     c1_RightInvariant_EKF.obj
 0002:0000083c       ??_C@_01IIACKFLH@q?$AA@    000000018004f83c     c1_RightInvariant_EKF.obj
 0002:00000840       ??_C@_01EANLCPLP@y?$AA@    000000018004f840     c1_RightInvariant_EKF.obj
 0002:00000844       ??_C@_06GABBCIBA@method?$AA@ 000000018004f844     c1_RightInvariant_EKF.obj
 0002:0000084c       ??_C@_05HDBKIDE@state?$AA@ 000000018004f84c     c1_RightInvariant_EKF.obj
 0002:00000858       ??_C@_0CA@HKHNGLGL@is_active_c1_RightInvariant_EKF?$AA@ 000000018004f858     c1_RightInvariant_EKF.obj
 0002:00000878       ??_C@_07ONPBMBOP@message?$AA@ 000000018004f878     c1_RightInvariant_EKF.obj
 0002:00000880       ??_C@_05KKCIMGE@error?$AA@ 000000018004f880     c1_RightInvariant_EKF.obj
 0002:00000890       ??_C@_0HB@LIFHLFJL@C?3?2Users?2Ross?5Hartley?2Documents?2@ 000000018004f890     c1_RightInvariant_EKF.obj
 0002:00000910       ??_C@_0FP@OPJECDPA@C?3?2Users?2Ross?5Hartley?2Documents?2@ 000000018004f910     c1_RightInvariant_EKF.obj
 0002:00000970       ??_C@_0BAB@HGMHFEHB@789ced53cd4ac34010de48ad4a513c79@ 000000018004f970     c1_RightInvariant_EKF.obj
 0002:00000a80       ??_C@_0BAB@MHPLPEFM@67303d4fd7c2d0b408d46804542c0148@ 000000018004fa80     c1_RightInvariant_EKF.obj
 0002:00000b90       ??_C@_0BAB@IHHOFEOE@658b57dcb6e76d69066316b434d14d87@ 000000018004fb90     c1_RightInvariant_EKF.obj
 0002:00000ca0       ??_C@_0FF@DKGNGCAP@18df586edda4b6a04aff73b8e81c9af5@ 000000018004fca0     c1_RightInvariant_EKF.obj
 0002:00000cf5       ??_C@_00CNPNBAHC@?$AA@     000000018004fcf5     c1_RightInvariant_EKF.obj
 0002:00000cf8       ??_C@_08DNPJAFPH@checksum?$AA@ 000000018004fcf8     c1_RightInvariant_EKF.obj
 0002:00000d04       ??_C@_06LMJKBNEF@inputs?$AA@ 000000018004fd04     c1_RightInvariant_EKF.obj
 0002:00000d10       ??_C@_0L@HHPOFMCB@parameters?$AA@ 000000018004fd10     c1_RightInvariant_EKF.obj
 0002:00000d20       ??_C@_07EPCMHIAC@outputs?$AA@ 000000018004fd20     c1_RightInvariant_EKF.obj
 0002:00000d28       ??_C@_06MPPADOBF@locals?$AA@ 000000018004fd28     c1_RightInvariant_EKF.obj
 0002:00000d30       ??_C@_0BA@GNIFLIGG@postCodegenInfo?$AA@ 000000018004fd30     c1_RightInvariant_EKF.obj
 0002:00000d40       ??_C@_04IAGNFIBA@size?$AA@ 000000018004fd40     c1_RightInvariant_EKF.obj
 0002:00000d48       ??_C@_04GPMDFGEJ@type?$AA@ 000000018004fd48     c1_RightInvariant_EKF.obj
 0002:00000d50       ??_C@_0L@EKHILPHI@complexity?$AA@ 000000018004fd50     c1_RightInvariant_EKF.obj
 0002:00000d5c       ??_C@_04BHIIPFEC@base?$AA@ 000000018004fd5c     c1_RightInvariant_EKF.obj
 0002:00000d64       ??_C@_05LFJLPLPG@fixpt?$AA@ 000000018004fd64     c1_RightInvariant_EKF.obj
 0002:00000d70       ??_C@_0BB@IBODCOLK@isFixedPointType?$AA@ 000000018004fd70     c1_RightInvariant_EKF.obj
 0002:00000d88       ??_C@_0N@FNBJKNNB@fallbackType?$AA@ 000000018004fd88     c1_RightInvariant_EKF.obj
 0002:00000d98       ??_C@_0P@LHIHPNIN@fallbackReason?$AA@ 000000018004fd98     c1_RightInvariant_EKF.obj
 0002:00000da8       ??_C@_0BD@JNJMKOMN@hiddenFallbackType?$AA@ 000000018004fda8     c1_RightInvariant_EKF.obj
 0002:00000dc0       ??_C@_0BF@MIPJDBOP@hiddenFallbackReason?$AA@ 000000018004fdc0     c1_RightInvariant_EKF.obj
 0002:00000dd8       ??_C@_0BD@MBPFBLBL@incompatibleSymbol?$AA@ 000000018004fdd8     c1_RightInvariant_EKF.obj
 0002:00000dec       ??_C@_03PKHLKDKD@pre?$AA@  000000018004fdec     c1_RightInvariant_EKF.obj
 0002:00000df0       ??_C@_0P@DFMNDNBL@hasBreakpoints?$AA@ 000000018004fdf0     c1_RightInvariant_EKF.obj
 0002:00000e00       ??_C@_04CGFJFPFD@none?$AA@ 000000018004fe00     c1_RightInvariant_EKF.obj
 0002:00000e08       ??_C@_0CB@OGALNHBM@exportedFunctionsUsedByThisChart@ 000000018004fe08     c1_RightInvariant_EKF.obj
 0002:00000e30       ??_C@_0BK@PBMGMDMC@exportedFunctionsChecksum?$AA@ 000000018004fe30     c1_RightInvariant_EKF.obj
 0002:00000e50       ??_C@_0O@MGONKHEL@chartChecksum?$AA@ 000000018004fe50     c1_RightInvariant_EKF.obj
 0002:00000e60       ??_C@_07LLOMCJOI@varInfo?$AA@ 000000018004fe60     c1_RightInvariant_EKF.obj
 0002:00000e70       ??_C@_0CNL@EFLOLOD@100?5S1x6?8type?8?0?8srcId?8?0?8name?8?0?8a@ 000000018004fe70     c1_RightInvariant_EKF.obj
 0002:00001150       ??_C@_0P@FJGKMAOK@eML_blk_kernel?$AA@ 0000000180050150     c1_RightInvariant_EKF.obj
 0002:00001160       ??_C@_0BH@CPLKEBHN@Quaternion_to_Rotation?$AA@ 0000000180050160     c1_RightInvariant_EKF.obj
 0002:00001178       ??_C@_04EFOKAEAF@skew?$AA@ 0000000180050178     c1_RightInvariant_EKF.obj
 0002:00001180       ??_C@_0CE@GCOMPGOI@gatewayCannotBeInlinedMultipleTi@ 0000000180050180     c1_RightInvariant_EKF.obj
 0002:000011a8       ??_C@_0BA@MNMMMMOJ@Embedded?5MATLAB?$AA@ 00000001800501a8     c1_RightInvariant_EKF.obj
 0002:000011b8       ??_C@_0BD@LODGPJN@StateflowChartType?$AA@ 00000001800501b8     c1_RightInvariant_EKF.obj
 0002:000011d0       ??_C@_0CO@DMGIOHMB@Could?5not?5allocate?5memory?5for?5ch@ 00000001800501d0     c1_RightInvariant_EKF.obj
 0002:00001200       ??_C@_0GK@IGHJDKEN@Stateflow?5Internal?5Error?3?6Error?5@ 0000000180050200     c1_RightInvariant_EKF.obj
 0002:00001270       __real@0000000000000001    0000000180050270     c1_RightInvariant_EKF.obj
 0002:00001278       __real@0010000000000000    0000000180050278     c1_RightInvariant_EKF.obj
 0002:00001280       __real@3ca0000000000000    0000000180050280     c1_RightInvariant_EKF.obj
 0002:00001288       __real@3fe0000000000000    0000000180050288     c1_RightInvariant_EKF.obj
 0002:00001290       __real@3ff0000000000000    0000000180050290     c1_RightInvariant_EKF.obj
 0002:00001298       __real@4000000000000000    0000000180050298     c1_RightInvariant_EKF.obj
 0002:000012a0       __real@4008000000000000    00000001800502a0     c1_RightInvariant_EKF.obj
 0002:000012a8       __real@4010000000000000    00000001800502a8     c1_RightInvariant_EKF.obj
 0002:000012b0       __real@4024000000000000    00000001800502b0     c1_RightInvariant_EKF.obj
 0002:000012b8       __real@406c800000000000    00000001800502b8     c1_RightInvariant_EKF.obj
 0002:000012c0       __real@4078d00000000000    00000001800502c0     c1_RightInvariant_EKF.obj
 0002:000012c8       __real@4083880000000000    00000001800502c8     c1_RightInvariant_EKF.obj
 0002:000012d0       __real@4190000000000000    00000001800502d0     c1_RightInvariant_EKF.obj
 0002:000012d8       __real@41f0000000000000    00000001800502d8     c1_RightInvariant_EKF.obj
 0002:000012e0       __xmm@80000000000000008000000000000000 00000001800502e0     c1_RightInvariant_EKF.obj
 0002:000012f0       ??_C@_01JBBJJEPG@p?$AA@    00000001800502f0     c2_RightInvariant_EKF.obj
 0002:000012f4       ??_C@_02MHONHKMH@dR?$AA@   00000001800502f4     c2_RightInvariant_EKF.obj
 0002:000012f8       ??_C@_02BDKMEFBI@dL?$AA@   00000001800502f8     c2_RightInvariant_EKF.obj
 0002:00001300       ??_C@_0L@JPALPDGI@quaternion?$AA@ 0000000180050300     c2_RightInvariant_EKF.obj
 0002:00001310       ??_C@_08ICEJNDOI@velocity?$AA@ 0000000180050310     c2_RightInvariant_EKF.obj
 0002:00001320       ??_C@_08LKLCDGHD@encoders?$AA@ 0000000180050320     c2_RightInvariant_EKF.obj
 0002:00001330       ??_C@_07FLDMKAK@contact?$AA@ 0000000180050330     c2_RightInvariant_EKF.obj
 0002:00001338       ??_C@_06MMPPOECC@X_init?$AA@ 0000000180050338     c2_RightInvariant_EKF.obj
 0002:00001340       ??_C@_04FNPNDGGH@var1?$AA@ 0000000180050340     c2_RightInvariant_EKF.obj
 0002:00001348       ??_C@_07INGDFFIF@output1?$AA@ 0000000180050348     c2_RightInvariant_EKF.obj
 0002:00001350       ??_C@_0CA@BGDOJII@is_active_c2_RightInvariant_EKF?$AA@ 0000000180050350     c2_RightInvariant_EKF.obj
 0002:00001370       ??_C@_0IA@MNALAMBH@C?3?2Users?2Ross?5Hartley?2Documents?2@ 0000000180050370     c2_RightInvariant_EKF.obj
 0002:000013f0       ??_C@_0IB@HEIOOLIC@C?3?2Users?2Ross?5Hartley?2Documents?2@ 00000001800503f0     c2_RightInvariant_EKF.obj
 0002:00001480       ??_C@_0BAB@CPPFKGK@789ced56d16ed330147551a940138827@ 0000000180050480     c2_RightInvariant_EKF.obj
 0002:00001590       ??_C@_0BAB@IFGPDJNF@e589e67404c807cec8189c59a4eb1268@ 0000000180050590     c2_RightInvariant_EKF.obj
 0002:000016a0       ??_C@_0BAB@PHNDIDGB@5f1098e20ab3030a9ee0587585167466@ 00000001800506a0     c2_RightInvariant_EKF.obj
 0002:000017b0       ??_C@_0BAB@KIBNFAJH@9ff2214c1679b6f5e5f70cbe95e25bd7@ 00000001800507b0     c2_RightInvariant_EKF.obj
 0002:000018c0       ??_C@_0HL@HHMAIOEI@5dd5b59cceb13cfffb527bc8747bfd25@ 00000001800508c0     c2_RightInvariant_EKF.obj
 0002:0000193c       ??_C@_04KNPHFNKG@late?$AA@ 000000018005093c     c2_RightInvariant_EKF.obj
 0002:00001948       ??_C@_0BC@DKPECNGA@ir_function_calls?$AA@ 0000000180050948     c2_RightInvariant_EKF.obj
 0002:00001960       ??_C@_0CB@EBGIKAGN@p_VectorNav_to_LeftToeBottom_src@ 0000000180050960     c2_RightInvariant_EKF.obj
 0002:00001990       ??_C@_0HA@CKIDPIJJ@100?5S1x2?8type?8?0?8srcId?8?0?8name?8?0?8a@ 0000000180050990     c2_RightInvariant_EKF.obj
 0002:00001a00       ??_C@_0BN@LEKPEEPE@p_VectorNav_to_LeftToeBottom?$AA@ 0000000180050a00     c2_RightInvariant_EKF.obj
 0002:00001a20       ??_C@_0BO@OKCFKHJ@p_VectorNav_to_RightToeBottom?$AA@ 0000000180050a20     c2_RightInvariant_EKF.obj
 0002:00001a40       ??_C@_0GK@NMDGMLCG@Stateflow?5Internal?5Error?3?6Error?5@ 0000000180050a40     c2_RightInvariant_EKF.obj
 0002:00001ab0       ??_C@_0BB@BDHKFOPE@use_ekf_position?$AA@ 0000000180050ab0     c40_RightInvariant_EKF.obj
 0002:00001ac8       ??_C@_0BE@OOIAGGJA@use_ekf_orientation?$AA@ 0000000180050ac8     c40_RightInvariant_EKF.obj
 0002:00001ae0       ??_C@_0BB@HBFPLHBJ@use_ekf_velocity?$AA@ 0000000180050ae0     c40_RightInvariant_EKF.obj
 0002:00001af4       ??_C@_01KGKMHCOC@e?$AA@    0000000180050af4     c40_RightInvariant_EKF.obj
 0002:00001af8       ??_C@_05BANLMIBE@e_dot?$AA@ 0000000180050af8     c40_RightInvariant_EKF.obj
 0002:00001b00       ??_C@_04LAMNDPKH@J_pL?$AA@ 0000000180050b00     c40_RightInvariant_EKF.obj
 0002:00001b08       ??_C@_02NMMCHBGL@pR?$AA@   0000000180050b08     c40_RightInvariant_EKF.obj
 0002:00001b0c       ??_C@_04GEIMAAHI@J_pR?$AA@ 0000000180050b0c     c40_RightInvariant_EKF.obj
 0002:00001b14       ??_C@_03EANDCIGK@Rbi?$AA@  0000000180050b14     c40_RightInvariant_EKF.obj
 0002:00001b18       ??_C@_03FKDOEJPB@Rwi?$AA@  0000000180050b18     c40_RightInvariant_EKF.obj
 0002:00001b1c       ??_C@_03LJMKJADK@Rwb?$AA@  0000000180050b1c     c40_RightInvariant_EKF.obj
 0002:00001b20       ??_C@_02HJEEANKG@dq?$AA@   0000000180050b20     c40_RightInvariant_EKF.obj
 0002:00001b24       ??_C@_01NOFIACDB@w?$AA@    0000000180050b24     c40_RightInvariant_EKF.obj
 0002:00001b28       ??_C@_01MMEEDKFM@X?$AA@    0000000180050b28     c40_RightInvariant_EKF.obj
 0002:00001b30       ??_C@_0M@GLJJEHAC@ekf_enabled?$AA@ 0000000180050b30     c40_RightInvariant_EKF.obj
 0002:00001b40       ??_C@_0BD@PDDJJPEM@velocity_kinematic?$AA@ 0000000180050b40     c40_RightInvariant_EKF.obj
 0002:00001b58       ??_C@_0BA@OOFKGDDE@filter_selector?$AA@ 0000000180050b58     c40_RightInvariant_EKF.obj
 0002:00001b68       ??_C@_05FECKLAFM@theta?$AA@ 0000000180050b68     c40_RightInvariant_EKF.obj
 0002:00001b70       ??_C@_03IBHELMNB@ypr?$AA@  0000000180050b70     c40_RightInvariant_EKF.obj
 0002:00001b78       ??_C@_0CB@EHPCGEDM@is_active_c40_RightInvariant_EKF@ 0000000180050b78     c40_RightInvariant_EKF.obj
 0002:00001ba0       ??_C@_0IA@EOAJAKEM@C?3?2Users?2Ross?5Hartley?2Documents?2@ 0000000180050ba0     c40_RightInvariant_EKF.obj
 0002:00001c20       ??_C@_0IB@IILEGBPI@C?3?2Users?2Ross?5Hartley?2Documents?2@ 0000000180050c20     c40_RightInvariant_EKF.obj
 0002:00001cb0       ??_C@_0HJ@HDIGLNAN@C?3?2Users?2Ross?5Hartley?2Documents?2@ 0000000180050cb0     c40_RightInvariant_EKF.obj
 0002:00001d30       ??_C@_0HJ@FEGLIPHI@C?3?2Users?2Ross?5Hartley?2Documents?2@ 0000000180050d30     c40_RightInvariant_EKF.obj
 0002:00001db0       ??_C@_0GM@CDFMJOMH@C?3?2Users?2Ross?5Hartley?2Documents?2@ 0000000180050db0     c40_RightInvariant_EKF.obj
 0002:00001e20       ??_C@_0FN@DDJAIALN@C?3?2Users?2Ross?5Hartley?2Documents?2@ 0000000180050e20     c40_RightInvariant_EKF.obj
 0002:00001e80       ??_C@_0FN@CBCFCPFD@C?3?2Users?2Ross?5Hartley?2Documents?2@ 0000000180050e80     c40_RightInvariant_EKF.obj
 0002:00001ee0       ??_C@_0FN@JJJJEIDG@C?3?2Users?2Ross?5Hartley?2Documents?2@ 0000000180050ee0     c40_RightInvariant_EKF.obj
 0002:00001f40       ??_C@_0BAB@INKEBMJJ@789ced984d6fda300086cdd455abaa4d@ 0000000180050f40     c40_RightInvariant_EKF.obj
 0002:00002050       ??_C@_0BAB@EBGBBAPL@4a459021186c55248b8aa09053438540@ 0000000180051050     c40_RightInvariant_EKF.obj
 0002:00002160       ??_C@_0BAB@DAJEMMLL@fee843f42d53c050c30c8f307e991434@ 0000000180051160     c40_RightInvariant_EKF.obj
 0002:00002270       ??_C@_0BAB@MEHPPMIN@f65e5bdaf34d680f58f66e8e5f243fec@ 0000000180051270     c40_RightInvariant_EKF.obj
 0002:00002380       ??_C@_0BAB@IJLFMPOH@24bc58ab8f2d288b584f3edbfc54ff83@ 0000000180051380     c40_RightInvariant_EKF.obj
 0002:00002490       ??_C@_0BAB@KHNEIMJ@b0b7b7e70fed1c7702398d7091e5e345@ 0000000180051490     c40_RightInvariant_EKF.obj
 0002:000025a0       ??_C@_0PH@GPNLHDKC@ef58f2cecae157077fc9e62fddeef5e2@ 00000001800515a0     c40_RightInvariant_EKF.obj
 0002:000026a0       ??_C@_0NP@ICBBFDIN@100?5S1x6?8type?8?0?8srcId?8?0?8name?8?0?8a@ 00000001800516a0     c40_RightInvariant_EKF.obj
 0002:00002780       ??_C@_0BN@IMFEKCFA@J_VectorNav_to_LeftToeBottom?$AA@ 0000000180051780     c40_RightInvariant_EKF.obj
 0002:000027a0       ??_C@_0BO@NPCBMGGO@J_VectorNav_to_RightToeBottom?$AA@ 00000001800517a0     c40_RightInvariant_EKF.obj
 0002:000027c0       ??_C@_0BG@ENNCCMCN@R_VectorNav_to_Pelvis?$AA@ 00000001800517c0     c40_RightInvariant_EKF.obj
 0002:000027d8       ??_C@_0BG@OLBNHHGO@p_VectorNav_to_Pelvis?$AA@ 00000001800517d8     c40_RightInvariant_EKF.obj
 0002:000027f0       ??_C@_0BC@EMLOPBGD@Euler_to_Rotation?$AA@ 00000001800517f0     c40_RightInvariant_EKF.obj
 0002:00002804       ??_C@_02LKFGENEP@Rz?$AA@   0000000180051804     c40_RightInvariant_EKF.obj
 0002:00002808       ??_C@_02JBHLBOIM@Ry?$AA@   0000000180051808     c40_RightInvariant_EKF.obj
 0002:0000280c       ??_C@_02IIGACPMN@Rx?$AA@   000000018005180c     c40_RightInvariant_EKF.obj
 0002:00002810       ??_C@_0GL@BDPGCFML@Stateflow?5Internal?5Error?3?6Error?5@ 0000000180051810     c40_RightInvariant_EKF.obj
 0002:00002880       __real@4014000000000000    0000000180051880     c40_RightInvariant_EKF.obj
 0002:00002888       __real@4018000000000000    0000000180051888     c40_RightInvariant_EKF.obj
 0002:00002890       DYNAMIC_DIMENSION_DEF      0000000180051890     RightInvariant_EKF_sfun_registry.obj
 0002:000028b0       _ssBadLevel2InputAccessMsg 00000001800518b0     RightInvariant_EKF_sfun_registry.obj
 0002:00002a40       _ssBadLevel2ReusableInputAccessMsg 0000000180051a40     RightInvariant_EKF_sfun_registry.obj
 0002:00002b40       _ssBadLevel2DirectFeedMsg  0000000180051b40     RightInvariant_EKF_sfun_registry.obj
 0002:00002c80       _ssBadLevel2DirectFeedSolutionMsg 0000000180051c80     RightInvariant_EKF_sfun_registry.obj
 0002:00002cf0       _ssBadLevel2ZeroDirectFeedMsg 0000000180051cf0     RightInvariant_EKF_sfun_registry.obj
 0002:00002e30       _ssBadLevel2ZeroDirectFeedMsg2 0000000180051e30     RightInvariant_EKF_sfun_registry.obj
 0002:00002f18       ??_C@_0BA@KGFBHDLB@StateEstimation?$AA@ 0000000180051f18     RightInvariant_EKF_sfun_registry.obj
 0002:00002f28       ??_C@_0BC@CNMKKKAK@UDP_Communication?$AA@ 0000000180051f28     RightInvariant_EKF_sfun_registry.obj
 0002:00002f40       ??_C@_0O@EMPBGPFO@sf_mex_unlock?$AA@ 0000000180051f40     RightInvariant_EKF_sfun_registry.obj
 0002:00002f50       ??_C@_0BG@IBKJPFO@Unsuccessful?5command?4?$AA@ 0000000180051f50     RightInvariant_EKF_sfun_registry.obj
 0002:00002f68       ??_C@_06EJFCAODB@sfc_sf?$AA@ 0000000180051f68     RightInvariant_EKF_sfun_registry.obj
 0002:00002f70       ??_C@_0BD@NMFAPBEK@mdlInitializeSizes?$AA@ 0000000180051f70     RightInvariant_EKF_sfun_registry.obj
 0002:00002f88       ??_C@_0BJ@PBIFPMMD@mdlInitializeSampleTimes?$AA@ 0000000180051f88     RightInvariant_EKF_sfun_registry.obj
 0002:00002fa8       ??_C@_0CE@KLHPLFLE@Incorrect?5absolute?5tolerance?5val@ 0000000180051fa8     RightInvariant_EKF_sfun_registry.obj
 0002:00002fd0       ??_C@_0HG@PJFFKILG@To?5have?5a?5variable?5sample?5time?0?5@ 0000000180051fd0     RightInvariant_EKF_sfun_registry.obj
 0002:00003048       ??_C@_07KEMHKLEK@sf_sfun?$AA@ 0000000180052048     RightInvariant_EKF_sfun_registry.obj
 0002:00003050       ??_C@_0P@MPEDGIBG@block?5?8?$CFs?8?3?5?$CFs?$AA@ 0000000180052050     RightInvariant_EKF_sfun_registry.obj
 0002:00003060       ??_C@_0M@HFFOIJBL@Fatal?5Error?$AA@ 0000000180052060     RightInvariant_EKF_sfun_registry.obj
 0002:0000306c       ??_C@_05NFCMEHKM@modal?$AA@ 000000018005206c     RightInvariant_EKF_sfun_registry.obj
 0002:00003078       ??_C@_08DPAFNJAF@errordlg?$AA@ 0000000180052078     RightInvariant_EKF_sfun_registry.obj
 0002:00003090       ??_C@_0GM@NCOEMALC@The?5macro?5ssSetInputPortReusable@ 0000000180052090     RightInvariant_EKF_sfun_registry.obj
 0002:00003100       ??_C@_0GO@JBNJGGGF@The?5macro?5ssSetOutputPortReusabl@ 0000000180052100     RightInvariant_EKF_sfun_registry.obj
 0002:00003170       ??_C@_0DN@EDCPKDFF@Invalid?5SSWRITE_VALUE_type?5passe@ 0000000180052170     RightInvariant_EKF_sfun_registry.obj
 0002:000031b0       ??_C@_0CP@COAHDLED@Invalid?5name?5passed?5to?5ssWriteRT@ 00000001800521b0     RightInvariant_EKF_sfun_registry.obj
 0002:000031e0       ??_C@_0EE@GLEHIFPL@Invalid?5number?5of?5rows?5or?5column@ 00000001800521e0     RightInvariant_EKF_sfun_registry.obj
 0002:00003228       ??_C@_0DH@BINNMHJO@Invalid?5value?5?$CINULL?$CJ?5passed?5to?5s@ 0000000180052228     RightInvariant_EKF_sfun_registry.obj
 0002:00003260       ??_C@_0DK@PPMMKFDB@Invalid?5SSWRITE_VALUE_type?5passe@ 0000000180052260     RightInvariant_EKF_sfun_registry.obj
 0002:000032a0       ??_C@_0DB@HCPGIJON@Invalid?5arguments?5passed?5to?5ssWr@ 00000001800522a0     RightInvariant_EKF_sfun_registry.obj
 0002:000032d8       ??_C@_0BE@OBOJGMOM@SFcnParamSettings?5?$HL?$AA@ 00000001800522d8     RightInvariant_EKF_sfun_registry.obj
 0002:000032f0       ??_C@_0DN@CGOCENGG@Invalid?5SSWRITE_VALUE_type?5passe@ 00000001800522f0     RightInvariant_EKF_sfun_registry.obj
 0002:00003330       ??_C@_01CELHOKLL@?$HN?$AA@ 0000000180052330     RightInvariant_EKF_sfun_registry.obj
 0002:00003334       ??_C@_05DHHBANHM@RWork?$AA@ 0000000180052334     RightInvariant_EKF_sfun_registry.obj
 0002:0000333c       ??_C@_05FOGAPPCE@IWork?$AA@ 000000018005233c     RightInvariant_EKF_sfun_registry.obj
 0002:00003344       ??_C@_05HKLJKMHH@PWork?$AA@ 0000000180052344     RightInvariant_EKF_sfun_registry.obj
 0002:00003350       ??_C@_0GB@GFODOFFG@Invalid?5work?5vector?5name?5?$CIvectNa@ 0000000180052350     RightInvariant_EKF_sfun_registry.obj
 0002:000033b8       ??_C@_0DN@PDLPCICK@nNames?5argument?5to?5ssWriteRTWWor@ 00000001800523b8     RightInvariant_EKF_sfun_registry.obj
 0002:000033f8       ??_C@_0CP@MILANHFN@Invalid?5arguments?5passed?5to?5ssWr@ 00000001800523f8     RightInvariant_EKF_sfun_registry.obj
 0002:00003428       ??_C@_0N@FPDCMLNJ@Num?$CFsDefines?$AA@ 0000000180052428     RightInvariant_EKF_sfun_registry.obj
 0002:00003438       ??_C@_0L@HMFJKAEE@?$CFsDefine?5?$HL?$AA@ 0000000180052438     RightInvariant_EKF_sfun_registry.obj
 0002:00003444       ??_C@_04FABLJDN@Name?$AA@  0000000180052444     RightInvariant_EKF_sfun_registry.obj
 0002:0000344c       ??_C@_05IBAMDCFI@Width?$AA@ 000000018005244c     RightInvariant_EKF_sfun_registry.obj
 0002:00003458       ??_C@_0L@CECHCPAP@StartIndex?$AA@ 0000000180052458     RightInvariant_EKF_sfun_registry.obj
 0002:00003470       ??_C@_0KG@IFBMNKEB@Error?5in?5ssWriteRTWWorkVect?4?5?5Th@ 0000000180052470     RightInvariant_EKF_sfun_registry.obj
 0002:00003518       ??_C@_0DH@BBMNHACP@?$CFs?5must?5be?5called?5with?5at?5least?5@ 0000000180052518     RightInvariant_EKF_sfun_registry.obj
 0002:00003550       ??_C@_0CM@GDGLCJDD@?$CFs?5called?5with?5too?5many?5left?5han@ 0000000180052550     RightInvariant_EKF_sfun_registry.obj
 0002:00003580       ??_C@_0ED@OKJJAFCJ@The?54th?5right?5hand?5argument?0?5FLA@ 0000000180052580     RightInvariant_EKF_sfun_registry.obj
 0002:000035c8       ??_C@_0BK@LLGLBEPA@Invalid?5flag?5passed?5to?5?$CFs?$AA@ 00000001800525c8     RightInvariant_EKF_sfun_registry.obj
 0002:000035e8       ??_C@_0BD@OAOBGOLA@simulink_only_sfcn?$AA@ 00000001800525e8     RightInvariant_EKF_sfun_registry.obj
 0002:00003600       ??_C@_0JK@CJIBLHJF@S?9function?5name?5mismatch?4?5Name?5i@ 0000000180052600     RightInvariant_EKF_sfun_registry.obj
 0002:000036a0       ??_C@_0DA@DCMEFFND@Unexpected?5call?5to?5mdlInitialize@ 00000001800526a0     RightInvariant_EKF_sfun_registry.obj
 0002:000036d0       ??_C@_0CI@BDILINDL@Unexpected?5call?5to?5mdlSetInputPo@ 00000001800526d0     RightInvariant_EKF_sfun_registry.obj
 0002:000036f8       ??_C@_0CJ@DNAKGJD@Unexpected?5call?5to?5mdlSetOutputP@ 00000001800526f8     RightInvariant_EKF_sfun_registry.obj
 0002:00003728       ??_C@_0DA@OOOCOJGO@Unexpected?5call?5to?5mdlSetInputPo@ 0000000180052728     RightInvariant_EKF_sfun_registry.obj
 0002:00003758       ??_C@_0DB@FMFJBHIH@Unexpected?5call?5to?5mdlSetOutputP@ 0000000180052758     RightInvariant_EKF_sfun_registry.obj
 0002:00003790       ??_C@_0DC@LPGACLKL@Unexpected?5call?5to?5mdlSetDefault@ 0000000180052790     RightInvariant_EKF_sfun_registry.obj
 0002:000037c8       ??_C@_0DF@OHIOLCOF@Unexpected?5call?5to?5mdlSetInputPo@ 00000001800527c8     RightInvariant_EKF_sfun_registry.obj
 0002:00003800       ??_C@_0DG@LLALKLBE@Unexpected?5call?5to?5mdlSetOutputP@ 0000000180052800     RightInvariant_EKF_sfun_registry.obj
 0002:00003838       ??_C@_0CN@LBOEHFLM@Unexpected?5call?5to?5mdlSetInputPo@ 0000000180052838     RightInvariant_EKF_sfun_registry.obj
 0002:00003868       ??_C@_0CO@KMKLFKNE@Unexpected?5call?5to?5mdlSetOutputP@ 0000000180052868     RightInvariant_EKF_sfun_registry.obj
 0002:00003898       ??_C@_0CL@JAIJJBAI@Unexpected?5call?5to?5mdlSetInputPo@ 0000000180052898     RightInvariant_EKF_sfun_registry.obj
 0002:000038c8       ??_C@_0CM@MNCLOINF@Unexpected?5call?5to?5mdlSetOutputP@ 00000001800528c8     RightInvariant_EKF_sfun_registry.obj
 0002:000038f8       ??_C@_0CO@OMIMJGF@Unexpected?5call?5to?5mdlSetDefault@ 00000001800528f8     RightInvariant_EKF_sfun_registry.obj
 0002:00003928       ??_C@_0DA@LNAAAFDE@Unexpected?5call?5to?5mdlSetInputPo@ 0000000180052928     RightInvariant_EKF_sfun_registry.obj
 0002:00003958       ??_C@_0DB@PLLPLNN@Unexpected?5call?5to?5mdlSetOutputP@ 0000000180052958     RightInvariant_EKF_sfun_registry.obj
 0002:00003990       ??_C@_0DD@MOEEGKHI@Unexpected?5call?5to?5mdlSetDefault@ 0000000180052990     RightInvariant_EKF_sfun_registry.obj
 0002:000039c8       ??_C@_0CM@HDDIPBHF@Unexpected?5call?5to?5mdlSetInputPo@ 00000001800529c8     RightInvariant_EKF_sfun_registry.obj
 0002:000039f8       ??_C@_0CE@JOMFECJO@Unexpected?5call?5to?5mdlSetWorkWid@ 00000001800529f8     RightInvariant_EKF_sfun_registry.obj
 0002:00003a20       ??_C@_0BK@KLFHBKND@Unexpected?5call?5to?5mdlRTW?$AA@ 0000000180052a20     RightInvariant_EKF_sfun_registry.obj
 0002:00003a40       ??_C@_0CL@HOPJILOF@Unexpected?5call?5to?5mdlInitialize@ 0000000180052a40     RightInvariant_EKF_sfun_registry.obj
 0002:00003a70       ??_C@_0BM@JEIMJPOB@Unexpected?5call?5to?5mdlStart?$AA@ 0000000180052a70     RightInvariant_EKF_sfun_registry.obj
 0002:00003a90       ??_C@_0BN@CLHMOMMN@Unexpected?5call?5to?5mdlEnable?$AA@ 0000000180052a90     RightInvariant_EKF_sfun_registry.obj
 0002:00003ab0       ??_C@_0BO@BCMJPGOP@Unexpected?5call?5to?5mdlDisable?$AA@ 0000000180052ab0     RightInvariant_EKF_sfun_registry.obj
 0002:00003ad0       ??_C@_0CG@FOAEDOAD@Unexpected?5call?5to?5mdlCheckParam@ 0000000180052ad0     RightInvariant_EKF_sfun_registry.obj
 0002:00003af8       ??_C@_0CI@KIHLGLHP@Unexpected?5call?5to?5mdlProcessPar@ 0000000180052af8     RightInvariant_EKF_sfun_registry.obj
 0002:00003b20       ??_C@_0CC@DCKOELLK@Unexpected?5call?5to?5mdlExtModeExe@ 0000000180052b20     RightInvariant_EKF_sfun_registry.obj
 0002:00003b48       ??_C@_0BN@LNBOMBLO@Unexpected?5call?5to?5mdlUpdate?$AA@ 0000000180052b48     RightInvariant_EKF_sfun_registry.obj
 0002:00003b68       ??_C@_0CC@EJAAFOAP@Unexpected?5call?5to?5mdlDerivative@ 0000000180052b68     RightInvariant_EKF_sfun_registry.obj
 0002:00003b90       ??_C@_0CC@KEMPIKAM@Unexpected?5call?5to?5mdlGetSimStat@ 0000000180052b90     RightInvariant_EKF_sfun_registry.obj
 0002:00003bb8       ??_C@_0CC@KLNBFMIP@Unexpected?5call?5to?5mdlSetSimStat@ 0000000180052bb8     RightInvariant_EKF_sfun_registry.obj
 0002:00003be0       ??_C@_0CH@KPHFBGAC@Invalid?5flag?5encountered?5in?5simu@ 0000000180052be0     RightInvariant_EKF_sfun_registry.obj
 0002:00003c08       __real@41602cbca0000000    0000000180052c08     RightInvariant_EKF_sfun_registry.obj
 0002:00003c10       __real@bff0000000000000    0000000180052c10     RightInvariant_EKF_sfun_registry.obj
 0002:00003c18       __real@3f5a36e2eb1c432d    0000000180052c18     p_RightToeBottom_src.obj
 0002:00003c20       __real@3f92d77318fc5048    0000000180052c20     p_RightToeBottom_src.obj
 0002:00003c28       __real@3f961e4f765fd8ae    0000000180052c28     p_RightToeBottom_src.obj
 0002:00003c30       __real@3f9f559b3d07c84b    0000000180052c30     p_RightToeBottom_src.obj
 0002:00003c38       __real@3fa916872b020c4a    0000000180052c38     p_RightToeBottom_src.obj
 0002:00003c40       __real@3fc0b4395810624e    0000000180052c40     p_RightToeBottom_src.obj
 0002:00003c48       __real@3fc147ae147ae148    0000000180052c48     p_RightToeBottom_src.obj
 0002:00003c50       __real@3ff219652bd3c361    0000000180052c50     p_RightToeBottom_src.obj
 0002:00003c58       __real@bf5a36e2eb1c432d    0000000180052c58     p_RightToeBottom_src.obj
 0002:00003c60       __real@bf92d77318fc5048    0000000180052c60     p_RightToeBottom_src.obj
 0002:00003c68       __real@bf961e4f765fd8ae    0000000180052c68     p_RightToeBottom_src.obj
 0002:00003c70       __real@bfa916872b020c4a    0000000180052c70     p_RightToeBottom_src.obj
 0002:00003c78       __real@bfb70a3d70a3d70a    0000000180052c78     p_RightToeBottom_src.obj
 0002:00003c80       __real@bfc147ae147ae148    0000000180052c80     p_RightToeBottom_src.obj
 0002:00003c88       __real@bfcae147ae147ae1    0000000180052c88     p_RightToeBottom_src.obj
 0002:00003c90       __real@bfd1532617c1bda5    0000000180052c90     p_RightToeBottom_src.obj
 0002:00003c98       __real@bfe69374bc6a7efa    0000000180052c98     p_RightToeBottom_src.obj
 0002:00003ca0       __real@bff1d0e560418937    0000000180052ca0     p_RightToeBottom_src.obj
 0002:00003ca8       __real@bfc0b4395810624e    0000000180052ca8     J_RightToeBottom_src.obj
 0002:00003cb0       __real@bff219652bd3c361    0000000180052cb0     J_RightToeBottom_src.obj
 0002:00003cb8       __real@3f726e978d4fdf40    0000000180052cb8     p_VectorNav_to_RightToeBottom_src.obj
 0002:00003cc0       __real@3fa027525460aa65    0000000180052cc0     p_VectorNav_to_RightToeBottom_src.obj
 0002:00003cc8       __real@3fb4784230fcf80e    0000000180052cc8     p_VectorNav_to_RightToeBottom_src.obj
 0002:00003cd0       __real@3fe491b823c85c25    0000000180052cd0     R_VectorNav_to_RightToeBottom_src.obj
 0002:00003cd8       __real@3fe8836eb4e98138    0000000180052cd8     R_VectorNav_to_RightToeBottom_src.obj
 0002:00003ce0       __real@0000000000000000    0000000180052ce0     p_VectorNav_to_LeftToeBottom_src.obj
 0002:00003ce8       ??_C@_07OPILGPEN@library?$AA@ 0000000180052ce8     StateEstimation_sfun:StateEstimation_sfun.obj
 0002:00003cf0       ??_C@_0BH@PDJKEDPH@UZum7TGUHKgvX9DqSlNKuD?$AA@ 0000000180052cf0     StateEstimation_sfun:StateEstimation_sfun.obj
 0002:00003d08       ??_C@_0BH@CNACKLAM@8x96s6k65hsUinpvN2FkkD?$AA@ 0000000180052d08     StateEstimation_sfun:StateEstimation_sfun.obj
 0002:00003d20       ??_C@_0BH@HDHIJBCN@LyZr2a2ZoHoaKjpcIzKcOH?$AA@ 0000000180052d20     StateEstimation_sfun:StateEstimation_sfun.obj
 0002:00003d38       ??_C@_0BI@OJIAPLBO@s4NK5CaNaafh9RC2YNlVczG?$AA@ 0000000180052d38     StateEstimation_sfun:StateEstimation_sfun.obj
 0002:00003d50       ??_C@_0BI@JPJCDDKC@s9aOqnkzkvppWSwYB8gKXQE?$AA@ 0000000180052d50     StateEstimation_sfun:StateEstimation_sfun.obj
 0002:00003d68       ??_C@_0BI@JODMIOFJ@sGtiguCJkbSPnVHjIGHg2kH?$AA@ 0000000180052d68     StateEstimation_sfun:StateEstimation_sfun.obj
 0002:00003d80       ??_C@_0BO@GBMBBJHN@is_active_c21_StateEstimation?$AA@ 0000000180052d80     StateEstimation_sfun:c21_StateEstimation.obj
 0002:00003da0       ??_C@_0BAB@CCFDAHLL@789ced56dd8ed240141ecc4a341bcdde@ 0000000180052da0     StateEstimation_sfun:c21_StateEstimation.obj
 0002:00003eb0       ??_C@_0BAB@DGLLPPMA@cbd66d511d0f0039c019f1a03d89742c@ 0000000180052eb0     StateEstimation_sfun:c21_StateEstimation.obj
 0002:00003fc0       ??_C@_0BAB@OMLJOPEI@14dd1104c638cb5a2e055b709cb784e2@ 0000000180052fc0     StateEstimation_sfun:c21_StateEstimation.obj
 0002:000040d0       ??_C@_0BAB@CAJPJNDP@9f4dda0ffe59f2b7f1cf3049c0289ae5@ 00000001800530d0     StateEstimation_sfun:c21_StateEstimation.obj
 0002:000041e0       ??_C@_0JN@KOBGOLCG@b6aa7de6a0433fd9ce3f9a9e7859042d@ 00000001800531e0     StateEstimation_sfun:c21_StateEstimation.obj
 0002:00004280       ??_C@_0HA@DLCEMFEN@100?5S1x2?8type?8?0?8srcId?8?0?8name?8?0?8a@ 0000000180053280     StateEstimation_sfun:c21_StateEstimation.obj
 0002:000042f0       ??_C@_0GI@DFHAIEOB@Stateflow?5Internal?5Error?3?6Error?5@ 00000001800532f0     StateEstimation_sfun:c21_StateEstimation.obj
 0002:00004358       ??_C@_03LBEAFBJM@qin?$AA@  0000000180053358     StateEstimation_sfun:c41_StateEstimation.obj
 0002:0000435c       ??_C@_03EJMJNBAO@Rni?$AA@  000000018005335c     StateEstimation_sfun:c41_StateEstimation.obj
 0002:00004360       ??_C@_03BFHPNPDG@Rwn?$AA@  0000000180053360     StateEstimation_sfun:c41_StateEstimation.obj
 0002:00004364       ??_C@_02GMLFBBN@wb?$AA@    0000000180053364     StateEstimation_sfun:c41_StateEstimation.obj
 0002:00004368       ??_C@_02GDKJGMDN@qq?$AA@   0000000180053368     StateEstimation_sfun:c41_StateEstimation.obj
 0002:0000436c       ??_C@_03MMKAHJNL@qaR?$AA@  000000018005336c     StateEstimation_sfun:c41_StateEstimation.obj
 0002:00004370       ??_C@_03MAPFJGDK@qjR?$AA@  0000000180053370     StateEstimation_sfun:c41_StateEstimation.obj
 0002:00004374       ??_C@_03BIOBEGAE@qaL?$AA@  0000000180053374     StateEstimation_sfun:c41_StateEstimation.obj
 0002:00004378       ??_C@_03BELEKJOF@qjL?$AA@  0000000180053378     StateEstimation_sfun:c41_StateEstimation.obj
 0002:0000437c       ??_C@_03JOIAKGH@dqq?$AA@   000000018005337c     StateEstimation_sfun:c41_StateEstimation.obj
 0002:00004380       ??_C@_04EHHEIAFH@dqaR?$AA@ 0000000180053380     StateEstimation_sfun:c41_StateEstimation.obj
 0002:00004388       ??_C@_04ELCBGPLG@dqjR?$AA@ 0000000180053388     StateEstimation_sfun:c41_StateEstimation.obj
 0002:00004390       ??_C@_04JDDFLPII@dqaL?$AA@ 0000000180053390     StateEstimation_sfun:c41_StateEstimation.obj
 0002:00004398       ??_C@_04JPGAFAGJ@dqjL?$AA@ 0000000180053398     StateEstimation_sfun:c41_StateEstimation.obj
 0002:000043a0       ??_C@_03OILJEJCB@qwi?$AA@  00000001800533a0     StateEstimation_sfun:c41_StateEstimation.obj
 0002:000043a4       ??_C@_02OFDPIING@wi?$AA@   00000001800533a4     StateEstimation_sfun:c41_StateEstimation.obj
 0002:000043a8       ??_C@_02PNJEFHBE@ai?$AA@   00000001800533a8     StateEstimation_sfun:c41_StateEstimation.obj
 0002:000043ac       ??_C@_02IPPGIAEI@a1?$AA@   00000001800533ac     StateEstimation_sfun:c41_StateEstimation.obj
 0002:000043b0       ??_C@_02KENLNDIL@a2?$AA@   00000001800533b0     StateEstimation_sfun:c41_StateEstimation.obj
 0002:000043b4       ??_C@_02LNMAOCMK@a3?$AA@   00000001800533b4     StateEstimation_sfun:c41_StateEstimation.obj
 0002:000043b8       ??_C@_02PCIBHEAN@a4?$AA@   00000001800533b8     StateEstimation_sfun:c41_StateEstimation.obj
 0002:000043bc       ??_C@_05OLIIKHDN@max_a?$AA@ 00000001800533bc     StateEstimation_sfun:c41_StateEstimation.obj
 0002:000043c4       ??_C@_02LCGLNHHE@qx?$AA@   00000001800533c4     StateEstimation_sfun:c41_StateEstimation.obj
 0002:000043c8       ??_C@_02KLHAOGDF@qy?$AA@   00000001800533c8     StateEstimation_sfun:c41_StateEstimation.obj
 0002:000043cc       ??_C@_02IAFNLFPG@qz?$AA@   00000001800533cc     StateEstimation_sfun:c41_StateEstimation.obj
 0002:000043d0       ??_C@_02LGOGKLMG@wx?$AA@   00000001800533d0     StateEstimation_sfun:c41_StateEstimation.obj
 0002:000043d4       ??_C@_02KPPNJKIH@wy?$AA@   00000001800533d4     StateEstimation_sfun:c41_StateEstimation.obj
 0002:000043d8       ??_C@_02IENAMJEE@wz?$AA@   00000001800533d8     StateEstimation_sfun:c41_StateEstimation.obj
 0002:000043dc       ??_C@_02LODGLCBA@t2?$AA@   00000001800533dc     StateEstimation_sfun:c41_StateEstimation.obj
 0002:000043e0       ??_C@_02KHCNIDFB@t3?$AA@   00000001800533e0     StateEstimation_sfun:c41_StateEstimation.obj
 0002:000043e4       ??_C@_02OIGMBFJG@t4?$AA@   00000001800533e4     StateEstimation_sfun:c41_StateEstimation.obj
 0002:000043e8       ??_C@_02PBHHCENH@t5?$AA@   00000001800533e8     StateEstimation_sfun:c41_StateEstimation.obj
 0002:000043ec       ??_C@_02NKFKHHBE@t6?$AA@   00000001800533ec     StateEstimation_sfun:c41_StateEstimation.obj
 0002:000043f0       ??_C@_03BMIBHJPC@in1?$AA@  00000001800533f0     StateEstimation_sfun:c41_StateEstimation.obj
 0002:000043f4       ??_C@_03DHKMCKDB@in2?$AA@  00000001800533f4     StateEstimation_sfun:c41_StateEstimation.obj
 0002:000043f8       ??_C@_0BO@PMBNBCGO@is_active_c41_StateEstimation?$AA@ 00000001800533f8     StateEstimation_sfun:c41_StateEstimation.obj
 0002:00004420       ??_C@_0HB@DPGBDMHC@C?3?2Users?2Ross?5Hartley?2Documents?2@ 0000000180053420     StateEstimation_sfun:c41_StateEstimation.obj
 0002:000044a0       ??_C@_0GM@PKNHPLNA@C?3?2Users?2Ross?5Hartley?2Documents?2@ 00000001800534a0     StateEstimation_sfun:c41_StateEstimation.obj
 0002:00004510       ??_C@_0HI@EPOFMBKB@C?3?2Users?2Ross?5Hartley?2Documents?2@ 0000000180053510     StateEstimation_sfun:c41_StateEstimation.obj
 0002:00004588       ??_C@_09GNENBKCD@structure?$AA@ 0000000180053588     StateEstimation_sfun:c41_StateEstimation.obj
 0002:00004598       ??_C@_0BF@JMKNOABP@vectorNavOrientation?$AA@ 0000000180053598     StateEstimation_sfun:c41_StateEstimation.obj
 0002:000045b0       ??_C@_0BJ@NGKHLEHA@vectorNavAngularVelocity?$AA@ 00000001800535b0     StateEstimation_sfun:c41_StateEstimation.obj
 0002:000045d0       ??_C@_0BM@MGFBIHPM@vectorNavLinearAcceleration?$AA@ 00000001800535d0     StateEstimation_sfun:c41_StateEstimation.obj
 0002:000045f0       ??_C@_0BH@CIHIDBAP@vectorNavMagneticField?$AA@ 00000001800535f0     StateEstimation_sfun:c41_StateEstimation.obj
 0002:00004608       ??_C@_0BC@JCNPCNEF@vectorNavPressure?$AA@ 0000000180053608     StateEstimation_sfun:c41_StateEstimation.obj
 0002:00004620       ??_C@_0BF@FKCJPHEC@vectorNavTemperature?$AA@ 0000000180053620     StateEstimation_sfun:c41_StateEstimation.obj
 0002:00004638       ??_C@_0O@FBFHKIAG@motorPosition?$AA@ 0000000180053638     StateEstimation_sfun:c41_StateEstimation.obj
 0002:00004648       ??_C@_0O@DDHCEBOL@motorVelocity?$AA@ 0000000180053648     StateEstimation_sfun:c41_StateEstimation.obj
 0002:00004658       ??_C@_0O@GKLNEBFD@jointPosition?$AA@ 0000000180053658     StateEstimation_sfun:c41_StateEstimation.obj
 0002:00004668       ??_C@_0O@IJIKILO@jointVelocity?$AA@ 0000000180053668     StateEstimation_sfun:c41_StateEstimation.obj
 0002:00004678       ??_C@_05LNKCELPI@radio?$AA@ 0000000180053678     StateEstimation_sfun:c41_StateEstimation.obj
 0002:00004680       ??_C@_0O@LOFIDLAC@stateOfCharge?$AA@ 0000000180053680     StateEstimation_sfun:c41_StateEstimation.obj
 0002:00004690       ??_C@_06DJIHEMFI@status?$AA@ 0000000180053690     StateEstimation_sfun:c41_StateEstimation.obj
 0002:000046a0       ??_C@_0BAB@GDHHPNOE@789ced584f6fda301c355357adaa3aed@ 00000001800536a0     StateEstimation_sfun:c41_StateEstimation.obj
 0002:000047b0       ??_C@_0BAB@MGMFLNBM@82355597757a3cea41604082511f2a93@ 00000001800537b0     StateEstimation_sfun:c41_StateEstimation.obj
 0002:000048c0       ??_C@_0BAB@FNIJBHJP@6977ebbc356b064688b188d9d0b06222@ 00000001800538c0     StateEstimation_sfun:c41_StateEstimation.obj
 0002:000049d0       ??_C@_0BAB@GBIAHFHL@1aba8af53ac5750953995acfe0eff15f@ 00000001800539d0     StateEstimation_sfun:c41_StateEstimation.obj
 0002:00004ae0       ??_C@_0BAB@IOFDKNJO@f652422f2b51e92832c0e9ea87467bf4@ 0000000180053ae0     StateEstimation_sfun:c41_StateEstimation.obj
 0002:00004bf0       ??_C@_0BAB@JKPONFDA@b4bcb0de37fcf9a070010bf964ce14d5@ 0000000180053bf0     StateEstimation_sfun:c41_StateEstimation.obj
 0002:00004d00       ??_C@_0JF@CODLLJFB@7ae87ce3e2313cf387559848364e20c2@ 0000000180053d00     StateEstimation_sfun:c41_StateEstimation.obj
 0002:00004d98       ??_C@_0BK@CAAIBOF@R_VectorNav_to_Pelvis_src?$AA@ 0000000180053d98     StateEstimation_sfun:c41_StateEstimation.obj
 0002:00004dc0       ??_C@_0LH@BBKGILOD@100?5S1x6?8type?8?0?8srcId?8?0?8name?8?0?8a@ 0000000180053dc0     StateEstimation_sfun:c41_StateEstimation.obj
 0002:00004e78       ??_C@_0BH@GLPGALJK@Rotation_to_Quaternion?$AA@ 0000000180053e78     StateEstimation_sfun:c41_StateEstimation.obj
 0002:00004e90       ??_C@_0BC@BLGOBKJJ@Rotation_to_Euler?$AA@ 0000000180053e90     StateEstimation_sfun:c41_StateEstimation.obj
 0002:00004ea8       ??_C@_0BO@HOOBEOFB@AngularVelocity_to_EulerRates?$AA@ 0000000180053ea8     StateEstimation_sfun:c41_StateEstimation.obj
 0002:00004ed0       ??_C@_0GI@NKKPMGI@Stateflow?5Internal?5Error?3?6Error?5@ 0000000180053ed0     StateEstimation_sfun:c41_StateEstimation.obj
 0002:00004f38       __real@3fd0000000000000    0000000180053f38     StateEstimation_sfun:c41_StateEstimation.obj
 0002:00004f40       __real@3ff921fb54442d18    0000000180053f40     StateEstimation_sfun:c41_StateEstimation.obj
 0002:00004f48       __real@402a000000000000    0000000180053f48     StateEstimation_sfun:c41_StateEstimation.obj
 0002:00004f50       __real@bff921fb54442d18    0000000180053f50     StateEstimation_sfun:c41_StateEstimation.obj
 0002:00004f58       ??_C@_09JNJPIHOI@qs_knee_L?$AA@ 0000000180053f58     StateEstimation_sfun:c42_StateEstimation.obj
 0002:00004f68       ??_C@_0M@CAMBJIOE@qs_tarsus_L?$AA@ 0000000180053f68     StateEstimation_sfun:c42_StateEstimation.obj
 0002:00004f78       ??_C@_09EJNOLIDH@qs_knee_R?$AA@ 0000000180053f78     StateEstimation_sfun:c42_StateEstimation.obj
 0002:00004f88       ??_C@_0M@PEIAKHDL@qs_tarsus_R?$AA@ 0000000180053f88     StateEstimation_sfun:c42_StateEstimation.obj
 0002:00004f94       ??_C@_05BNBBHGFM@tau_L?$AA@ 0000000180053f94     StateEstimation_sfun:c42_StateEstimation.obj
 0002:00004f9c       ??_C@_05MJFAEJID@tau_R?$AA@ 0000000180053f9c     StateEstimation_sfun:c42_StateEstimation.obj
 0002:00004fa4       ??_C@_05JLOAJGEG@GRF_L?$AA@ 0000000180053fa4     StateEstimation_sfun:c42_StateEstimation.obj
 0002:00004fac       ??_C@_05EPKBKJJJ@GRF_R?$AA@ 0000000180053fac     StateEstimation_sfun:c42_StateEstimation.obj
 0002:00004fb4       ??_C@_02BGODFDJN@cL?$AA@   0000000180053fb4     StateEstimation_sfun:c42_StateEstimation.obj
 0002:00004fb8       ??_C@_02MCKCGMEC@cR?$AA@   0000000180053fb8     StateEstimation_sfun:c42_StateEstimation.obj
 0002:00004fbc       ??_C@_03BBGDFCDK@GRF?$AA@  0000000180053fbc     StateEstimation_sfun:c42_StateEstimation.obj
 0002:00004fc0       ??_C@_05ECOCEDOB@a_min?$AA@ 0000000180053fc0     StateEstimation_sfun:c42_StateEstimation.obj
 0002:00004fc8       ??_C@_05FAGJKHIO@a_max?$AA@ 0000000180053fc8     StateEstimation_sfun:c42_StateEstimation.obj
 0002:00004fd0       ??_C@_01MCMALHOG@a?$AA@    0000000180053fd0     StateEstimation_sfun:c42_StateEstimation.obj
 0002:00004fd4       ??_C@_04KFGDHFOG@lim1?$AA@ 0000000180053fd4     StateEstimation_sfun:c42_StateEstimation.obj
 0002:00004fdc       ??_C@_04IOEOCGCF@lim2?$AA@ 0000000180053fdc     StateEstimation_sfun:c42_StateEstimation.obj
 0002:00004fe4       ??_C@_01OJONOECF@b?$AA@    0000000180053fe4     StateEstimation_sfun:c42_StateEstimation.obj
 0002:00004fe8       ??_C@_01INIBCBCB@f?$AA@    0000000180053fe8     StateEstimation_sfun:c42_StateEstimation.obj
 0002:00004fec       ??_C@_02JKAOMCMK@tl?$AA@   0000000180053fec     StateEstimation_sfun:c42_StateEstimation.obj
 0002:00004ff0       ??_C@_02BAOGLNC@tu?$AA@    0000000180053ff0     StateEstimation_sfun:c42_StateEstimation.obj
 0002:00004ff4       ??_C@_01LKDEMHDF@s?$AA@    0000000180053ff4     StateEstimation_sfun:c42_StateEstimation.obj
 0002:00004ff8       ??_C@_0BO@BGJLMPAM@is_active_c42_StateEstimation?$AA@ 0000000180053ff8     StateEstimation_sfun:c42_StateEstimation.obj
 0002:00005020       ??_C@_0HE@LFOINJCK@C?3?2Users?2Ross?5Hartley?2Documents?2@ 0000000180054020     StateEstimation_sfun:c42_StateEstimation.obj
 0002:000050a0       ??_C@_0HD@MKCEAPCJ@C?3?2Users?2Ross?5Hartley?2Documents?2@ 00000001800540a0     StateEstimation_sfun:c42_StateEstimation.obj
 0002:00005120       ??_C@_0FO@FOFLHCGA@C?3?2Users?2Ross?5Hartley?2Documents?2@ 0000000180054120     StateEstimation_sfun:c42_StateEstimation.obj
 0002:00005180       ??_C@_0FI@CMGLAFP@C?3?2Users?2Ross?5Hartley?2Documents?2@ 0000000180054180     StateEstimation_sfun:c42_StateEstimation.obj
 0002:000051e0       ??_C@_0BAB@EACKOBOC@789ced555d6fd3301475505781a6012f@ 00000001800541e0     StateEstimation_sfun:c42_StateEstimation.obj
 0002:000052f0       ??_C@_0BAB@EDBMDIAN@2a001402a338826112b9f030743c0236@ 00000001800542f0     StateEstimation_sfun:c42_StateEstimation.obj
 0002:00005400       ??_C@_0BAB@MBGPEAPC@b8250649b46f3a8c79d037e3ee851463@ 0000000180054400     StateEstimation_sfun:c42_StateEstimation.obj
 0002:00005510       ??_C@_0BAB@LLLFLAJ@abf1c74f5aa53d6efd81cafdf158e997@ 0000000180054510     StateEstimation_sfun:c42_StateEstimation.obj
 0002:00005620       ??_C@_0FF@ILFLNGML@cebe2492924ba640d7adbf16f945f74c@ 0000000180054620     StateEstimation_sfun:c42_StateEstimation.obj
 0002:00005678       ??_C@_05PELDANK@feval?$AA@ 0000000180054678     StateEstimation_sfun:c42_StateEstimation.obj
 0002:00005680       ??_C@_0BF@BNAONCJP@J_RightToeBottom_src?$AA@ 0000000180054680     StateEstimation_sfun:c42_StateEstimation.obj
 0002:000056a0       ??_C@_0ID@PBBGOPHG@100?5S1x3?8type?8?0?8srcId?8?0?8name?8?0?8a@ 00000001800546a0     StateEstimation_sfun:c42_StateEstimation.obj
 0002:00005728       ??_C@_0BB@PCLHCOIO@J_RightToeBottom?$AA@ 0000000180054728     StateEstimation_sfun:c42_StateEstimation.obj
 0002:00005740       ??_C@_0BA@BIFDMPKP@J_LeftToeBottom?$AA@ 0000000180054740     StateEstimation_sfun:c42_StateEstimation.obj
 0002:00005750       ??_C@_0M@ICIPBIAP@scaleFactor?$AA@ 0000000180054750     StateEstimation_sfun:c42_StateEstimation.obj
 0002:0000575c       ??_C@_05HADFAIAH@clamp?$AA@ 000000018005475c     StateEstimation_sfun:c42_StateEstimation.obj
 0002:00005770       ??_C@_0GI@MPHNKLJ@Stateflow?5Internal?5Error?3?6Error?5@ 0000000180054770     StateEstimation_sfun:c42_StateEstimation.obj
 0002:000057d8       __real@3fcd0ad2c7c63f7d    00000001800547d8     StateEstimation_sfun:c42_StateEstimation.obj
 0002:000057e0       __real@4049000000000000    00000001800547e0     StateEstimation_sfun:c42_StateEstimation.obj
 0002:000057e8       __real@4059000000000000    00000001800547e8     StateEstimation_sfun:c42_StateEstimation.obj
 0002:000057f0       __xmm@00000003000000020000000100000000 00000001800547f0     StateEstimation_sfun:c42_StateEstimation.obj
 0002:00005800       __xmm@406f400000000000406f400000000000 0000000180054800     StateEstimation_sfun:c42_StateEstimation.obj
 0002:00005810       __xmm@40977000000000004097700000000000 0000000180054810     StateEstimation_sfun:c42_StateEstimation.obj
 0002:00005820       ??_C@_0BH@OJKPGMC@EMzBK1twZORtPZ7whrrf9G?$AA@ 0000000180054820     UDP_Communication_sfun:UDP_Communication_sfun.obj
 0002:00005838       ??_C@_0BH@LLFGOOKN@sqQagvE1YWMMN5MMyq5U8G?$AA@ 0000000180054838     UDP_Communication_sfun:UDP_Communication_sfun.obj
 0002:00005850       ??_C@_01EJNLAFE@P?$AA@     0000000180054850     UDP_Communication_sfun:c43_UDP_Communication.obj
 0002:00005858       ??_C@_09KPFJMIPG@pose_data?$AA@ 0000000180054858     UDP_Communication_sfun:c43_UDP_Communication.obj
 0002:00005868       ??_C@_0CA@NLBBAONE@is_active_c43_UDP_Communication?$AA@ 0000000180054868     UDP_Communication_sfun:c43_UDP_Communication.obj
 0002:00005890       ??_C@_0BAB@NJEICMCN@789ced535d6fd330147561543004e205@ 0000000180054890     UDP_Communication_sfun:c43_UDP_Communication.obj
 0002:000059a0       ??_C@_0BAB@JILJNKJL@27634009484127104f2b4342619f30e8@ 00000001800549a0     UDP_Communication_sfun:c43_UDP_Communication.obj
 0002:00005ab0       ??_C@_0BAB@IOKNDAEI@065c49dc26aaa307d36ae0865212085c@ 0000000180054ab0     UDP_Communication_sfun:c43_UDP_Communication.obj
 0002:00005bc0       ??_C@_0NB@KKIAGNKB@5183f8b0d36f359bcd86f36cfbeb7a2f@ 0000000180054bc0     UDP_Communication_sfun:c43_UDP_Communication.obj
 0002:00005c98       ??_C@_0BK@JIJPHKDL@p_VectorNav_to_Pelvis_src?$AA@ 0000000180054c98     UDP_Communication_sfun:c43_UDP_Communication.obj
 0002:00005cc0       ??_C@_0HD@BMKBFAOP@100?5S1x2?8type?8?0?8srcId?8?0?8name?8?0?8a@ 0000000180054cc0     UDP_Communication_sfun:c43_UDP_Communication.obj
 0002:00005d40       ??_C@_0GK@DJMMPGFB@Stateflow?5Internal?5Error?3?6Error?5@ 0000000180054d40     UDP_Communication_sfun:c43_UDP_Communication.obj
 0002:00005db0       _pDefaultRawDllMain        0000000180054db0     MSVCRT:dll_dllmain.obj
 0002:00005db0       _pRawDllMain               0000000180054db0     MSVCRT:dll_dllmain.obj
 0002:00005df0       _load_config_used          0000000180054df0     MSVCRT:loadcfg.obj
 0002:000060b0       __rtc_iaa                  00000001800550b0     MSVCRT:_initsect_.obj
 0002:000060b8       __rtc_izz                  00000001800550b8     MSVCRT:_initsect_.obj
 0002:000060c0       __rtc_taa                  00000001800550c0     MSVCRT:_initsect_.obj
 0002:000060c8       __rtc_tzz                  00000001800550c8     MSVCRT:_initsect_.obj
 0002:00009020       __IMPORT_DESCRIPTOR_sf_runtime 0000000180058020     sf_runtime:sf_runtime.dll
 0002:00009034       __IMPORT_DESCRIPTOR_libmx  0000000180058034     libmx:libmx.dll
 0002:00009048       __IMPORT_DESCRIPTOR_libmex 0000000180058048     libmex:libmex.dll
 0002:0000905c       __IMPORT_DESCRIPTOR_libut  000000018005805c     libut:libut.dll
 0002:00009070       __IMPORT_DESCRIPTOR_libmwmathutil 0000000180058070     libmwmathutil:libmwmathutil.dll
 0002:00009084       __IMPORT_DESCRIPTOR_libemlrt 0000000180058084     libemlrt:libemlrt.dll
 0002:00009098       __IMPORT_DESCRIPTOR_KERNEL32 0000000180058098     kernel32:KERNEL32.dll
 0002:000090ac       __IMPORT_DESCRIPTOR_VCRUNTIME140 00000001800580ac     vcruntime:VCRUNTIME140.dll
 0002:000090c0       __IMPORT_DESCRIPTOR_api-ms-win-crt-string-l1-1-0 00000001800580c0     ucrt:api-ms-win-crt-string-l1-1-0.dll
 0002:000090d4       __IMPORT_DESCRIPTOR_api-ms-win-crt-math-l1-1-0 00000001800580d4     ucrt:api-ms-win-crt-math-l1-1-0.dll
 0002:000090e8       __IMPORT_DESCRIPTOR_api-ms-win-crt-heap-l1-1-0 00000001800580e8     ucrt:api-ms-win-crt-heap-l1-1-0.dll
 0002:000090fc       __IMPORT_DESCRIPTOR_api-ms-win-crt-stdio-l1-1-0 00000001800580fc     ucrt:api-ms-win-crt-stdio-l1-1-0.dll
 0002:00009110       __IMPORT_DESCRIPTOR_api-ms-win-crt-runtime-l1-1-0 0000000180058110     ucrt:api-ms-win-crt-runtime-l1-1-0.dll
 0002:00009124       __NULL_IMPORT_DESCRIPTOR   0000000180058124     sf_runtime:sf_runtime.dll
 0003:00000738       DYNAMIC_DIMENSION          000000018005a738     RightInvariant_EKF_sfun_registry.obj
 0003:00000f80       __security_cookie          000000018005af80     MSVCRT:gs_cookie.obj
 0003:00000f88       __security_cookie_complement 000000018005af88     MSVCRT:gs_cookie.obj
 0003:00000f90       _fltused                   000000018005af90     MSVCRT:dllsupp.obj
 0003:00000fa0       __scrt_native_dllmain_reason 000000018005afa0     MSVCRT:utility.obj
 0003:00000fa8       __isa_available            000000018005afa8     MSVCRT:_cpu_disp_.obj
 0003:00000fac       __isa_enabled              000000018005afac     MSVCRT:_cpu_disp_.obj
 0003:00000fb0       __memcpy_nt_iters          000000018005afb0     MSVCRT:_cpu_disp_.obj
 0003:00000fc0       __scrt_ucrt_dll_is_in_use  000000018005afc0     MSVCRT:ucrt_stubs.obj
 0003:00001000       sfGlobalDebugInstanceStruct 000000018005b000     RightInvariant_EKF_sfun_registry.obj
 0003:00001690       __scrt_current_native_startup_state 000000018005b690     MSVCRT:utility.obj
 0003:00001698       __scrt_native_startup_lock 000000018005b698     MSVCRT:utility.obj
 0003:000016e0       ?__type_info_root_node@@3U__type_info_node@@A 000000018005b6e0     MSVCRT:tncleanup.obj
 0003:000016f0       ?_OptionsStorage@?1??__local_stdio_printf_options@@9@4_KA 000000018005b6f0     MSVCRT:default_local_stdio_options.obj
 0003:000016f8       ?_OptionsStorage@?1??__local_stdio_scanf_options@@9@4_KA 000000018005b6f8     MSVCRT:default_local_stdio_options.obj
 0003:00001700       __scrt_debugger_hook_flag  000000018005b700     MSVCRT:utility_desktop.obj
 0003:00001704       __favor                    000000018005b704     MSVCRT:_cpu_disp_.obj
 0003:00001708       ?_OptionsStorage@?1??__local_stdio_printf_options@@9@9 000000018005b708     <common>
 0003:00001710       _RightInvariant_EKFMachineNumber_ 000000018005b710     <common>
 0003:00001714       _StateEstimationMachineNumber_ 000000018005b714     <common>
 0003:00001718       _UDP_CommunicationMachineNumber_ 000000018005b718     <common>
 0003:00001720       __dyn_tls_init_callback    000000018005b720     <common>

 entry point at        0001:0004c3b8

 Static symbols

 0000:00000000       .debug$S                   0000000180000000     libmx:libmx.dll
 0000:00000000       .debug$S                   0000000180000000     RightInvariant_EKF_sfun.exp
 0000:00000000       .debug$S                   0000000180000000     libmwmathutil:libmwmathutil.dll
 0000:00000000       .debug$S                   0000000180000000     libmwmathutil:libmwmathutil.dll
 0000:00000000       .debug$S                   0000000180000000     libmwmathutil:libmwmathutil.dll
 0000:00000000       .debug$S                   0000000180000000     libmwmathutil:libmwmathutil.dll
 0000:00000000       .debug$S                   0000000180000000     libmwmathutil:libmwmathutil.dll
 0000:00000000       .debug$S                   0000000180000000     libmwmathutil:libmwmathutil.dll
 0000:00000000       .debug$S                   0000000180000000     libmwmathutil:libmwmathutil.dll
 0000:00000000       .debug$S                   0000000180000000     libmwmathutil:libmwmathutil.dll
 0000:00000000       .debug$S                   0000000180000000     libmwmathutil:libmwmathutil.dll
 0000:00000000       .debug$S                   0000000180000000     ucrt:api-ms-win-crt-heap-l1-1-0.dll
 0000:00000000       .debug$S                   0000000180000000     libmwmathutil:libmwmathutil.dll
 0000:00000000       .debug$S                   0000000180000000     libmwmathutil:libmwmathutil.dll
 0000:00000000       .debug$S                   0000000180000000     ucrt:api-ms-win-crt-heap-l1-1-0.dll
 0000:00000000       .debug$S                   0000000180000000     libmwmathutil:libmwmathutil.dll
 0000:00000000       .debug$S                   0000000180000000     libut:libut.dll
 0000:00000000       .debug$S                   0000000180000000     libut:libut.dll
 0000:00000000       .debug$S                   0000000180000000     libmex:libmex.dll
 0000:00000000       .debug$S                   0000000180000000     libmex:libmex.dll
 0000:00000000       .debug$S                   0000000180000000     ucrt:api-ms-win-crt-math-l1-1-0.dll
 0000:00000000       .debug$S                   0000000180000000     libmex:libmex.dll
 0000:00000000       .debug$S                   0000000180000000     libmex:libmex.dll
 0000:00000000       .debug$S                   0000000180000000     ucrt:api-ms-win-crt-math-l1-1-0.dll
 0000:00000000       .debug$S                   0000000180000000     libmex:libmex.dll
 0000:00000000       .debug$S                   0000000180000000     libmex:libmex.dll
 0000:00000000       .debug$S                   0000000180000000     ucrt:api-ms-win-crt-math-l1-1-0.dll
 0000:00000000       .debug$S                   0000000180000000     libmex:libmex.dll
 0000:00000000       .debug$S                   0000000180000000     libmx:libmx.dll
 0000:00000000       .debug$S                   0000000180000000     ucrt:api-ms-win-crt-math-l1-1-0.dll
 0000:00000000       .debug$S                   0000000180000000     libmx:libmx.dll
 0000:00000000       .debug$S                   0000000180000000     libmx:libmx.dll
 0000:00000000       .debug$S                   0000000180000000     ucrt:api-ms-win-crt-runtime-l1-1-0.dll
 0000:00000000       .debug$S                   0000000180000000     libmx:libmx.dll
 0000:00000000       .debug$S                   0000000180000000     libmx:libmx.dll
 0000:00000000       .debug$S                   0000000180000000     ucrt:api-ms-win-crt-runtime-l1-1-0.dll
 0000:00000000       .debug$S                   0000000180000000     libmx:libmx.dll
 0000:00000000       .debug$S                   0000000180000000     libmx:libmx.dll
 0000:00000000       .debug$S                   0000000180000000     ucrt:api-ms-win-crt-runtime-l1-1-0.dll
 0000:00000000       .debug$S                   0000000180000000     ucrt:api-ms-win-crt-runtime-l1-1-0.dll
 0000:00000000       .debug$S                   0000000180000000     ucrt:api-ms-win-crt-runtime-l1-1-0.dll
 0000:00000000       .debug$S                   0000000180000000     libmx:libmx.dll
 0000:00000000       .debug$S                   0000000180000000     libmx:libmx.dll
 0000:00000000       .debug$S                   0000000180000000     sf_runtime:sf_runtime.dll
 0000:00000000       .debug$S                   0000000180000000     sf_runtime:sf_runtime.dll
 0000:00000000       .debug$S                   0000000180000000     sf_runtime:sf_runtime.dll
 0000:00000000       .debug$S                   0000000180000000     sf_runtime:sf_runtime.dll
 0000:00000000       .debug$S                   0000000180000000     sf_runtime:sf_runtime.dll
 0000:00000000       .debug$S                   0000000180000000     sf_runtime:sf_runtime.dll
 0000:00000000       .debug$S                   0000000180000000     sf_runtime:sf_runtime.dll
 0000:00000000       .debug$S                   0000000180000000     sf_runtime:sf_runtime.dll
 0000:00000000       .debug$S                   0000000180000000     sf_runtime:sf_runtime.dll
 0000:00000000       .debug$S                   0000000180000000     sf_runtime:sf_runtime.dll
 0000:00000000       .debug$S                   0000000180000000     sf_runtime:sf_runtime.dll
 0000:00000000       .debug$S                   0000000180000000     sf_runtime:sf_runtime.dll
 0000:00000000       .debug$S                   0000000180000000     sf_runtime:sf_runtime.dll
 0000:00000000       .debug$S                   0000000180000000     sf_runtime:sf_runtime.dll
 0000:00000000       .debug$S                   0000000180000000     sf_runtime:sf_runtime.dll
 0000:00000000       .debug$S                   0000000180000000     sf_runtime:sf_runtime.dll
 0000:00000000       .debug$S                   0000000180000000     sf_runtime:sf_runtime.dll
 0000:00000000       .debug$S                   0000000180000000     sf_runtime:sf_runtime.dll
 0000:00000000       .debug$S                   0000000180000000     sf_runtime:sf_runtime.dll
 0000:00000000       .debug$S                   0000000180000000     sf_runtime:sf_runtime.dll
 0000:00000000       .debug$S                   0000000180000000     sf_runtime:sf_runtime.dll
 0000:00000000       .debug$S                   0000000180000000     sf_runtime:sf_runtime.dll
 0000:00000000       .debug$S                   0000000180000000     sf_runtime:sf_runtime.dll
 0000:00000000       .debug$S                   0000000180000000     sf_runtime:sf_runtime.dll
 0000:00000000       .debug$S                   0000000180000000     sf_runtime:sf_runtime.dll
 0000:00000000       .debug$S                   0000000180000000     sf_runtime:sf_runtime.dll
 0000:00000000       .debug$S                   0000000180000000     sf_runtime:sf_runtime.dll
 0000:00000000       .debug$S                   0000000180000000     sf_runtime:sf_runtime.dll
 0000:00000000       .debug$S                   0000000180000000     sf_runtime:sf_runtime.dll
 0000:00000000       .debug$S                   0000000180000000     sf_runtime:sf_runtime.dll
 0000:00000000       .debug$S                   0000000180000000     sf_runtime:sf_runtime.dll
 0000:00000000       .debug$S                   0000000180000000     sf_runtime:sf_runtime.dll
 0000:00000000       .debug$S                   0000000180000000     sf_runtime:sf_runtime.dll
 0000:00000000       .debug$S                   0000000180000000     sf_runtime:sf_runtime.dll
 0000:00000000       .debug$S                   0000000180000000     sf_runtime:sf_runtime.dll
 0000:00000000       .debug$S                   0000000180000000     sf_runtime:sf_runtime.dll
 0000:00000000       .debug$S                   0000000180000000     sf_runtime:sf_runtime.dll
 0000:00000000       .debug$S                   0000000180000000     sf_runtime:sf_runtime.dll
 0000:00000000       .debug$S                   0000000180000000     ucrt:api-ms-win-crt-runtime-l1-1-0.dll
 0000:00000000       .debug$S                   0000000180000000     sf_runtime:sf_runtime.dll
 0000:00000000       .debug$S                   0000000180000000     ucrt:api-ms-win-crt-runtime-l1-1-0.dll
 0000:00000000       .debug$S                   0000000180000000     sf_runtime:sf_runtime.dll
 0000:00000000       .debug$S                   0000000180000000     ucrt:api-ms-win-crt-runtime-l1-1-0.dll
 0000:00000000       .debug$S                   0000000180000000     sf_runtime:sf_runtime.dll
 0000:00000000       .debug$S                   0000000180000000     ucrt:api-ms-win-crt-runtime-l1-1-0.dll
 0000:00000000       .debug$S                   0000000180000000     sf_runtime:sf_runtime.dll
 0000:00000000       .debug$S                   0000000180000000     ucrt:api-ms-win-crt-runtime-l1-1-0.dll
 0000:00000000       .debug$S                   0000000180000000     sf_runtime:sf_runtime.dll
 0000:00000000       .debug$S                   0000000180000000     ucrt:api-ms-win-crt-runtime-l1-1-0.dll
 0000:00000000       .debug$S                   0000000180000000     sf_runtime:sf_runtime.dll
 0000:00000000       .debug$S                   0000000180000000     ucrt:api-ms-win-crt-runtime-l1-1-0.dll
 0000:00000000       .debug$S                   0000000180000000     sf_runtime:sf_runtime.dll
 0000:00000000       .debug$S                   0000000180000000     ucrt:api-ms-win-crt-stdio-l1-1-0.dll
 0000:00000000       .debug$S                   0000000180000000     sf_runtime:sf_runtime.dll
 0000:00000000       .debug$S                   0000000180000000     sf_runtime:sf_runtime.dll
 0000:00000000       .debug$S                   0000000180000000     sf_runtime:sf_runtime.dll
 0000:00000000       .debug$S                   0000000180000000     ucrt:api-ms-win-crt-string-l1-1-0.dll
 0000:00000000       .debug$S                   0000000180000000     sf_runtime:sf_runtime.dll
 0000:00000000       .debug$S                   0000000180000000     sf_runtime:sf_runtime.dll
 0000:00000000       .debug$S                   0000000180000000     sf_runtime:sf_runtime.dll
 0000:00000000       .debug$S                   0000000180000000     vcruntime:VCRUNTIME140.dll
 0000:00000000       .debug$S                   0000000180000000     sf_runtime:sf_runtime.dll
 0000:00000000       .debug$S                   0000000180000000     vcruntime:VCRUNTIME140.dll
 0000:00000000       .debug$S                   0000000180000000     sf_runtime:sf_runtime.dll
 0000:00000000       .debug$S                   0000000180000000     vcruntime:VCRUNTIME140.dll
 0000:00000000       .debug$S                   0000000180000000     sf_runtime:sf_runtime.dll
 0000:00000000       .debug$S                   0000000180000000     vcruntime:VCRUNTIME140.dll
 0000:00000000       .debug$S                   0000000180000000     sf_runtime:sf_runtime.dll
 0000:00000000       .debug$S                   0000000180000000     sf_runtime:sf_runtime.dll
 0000:00000000       .debug$S                   0000000180000000     sf_runtime:sf_runtime.dll
 0000:00000000       .debug$S                   0000000180000000     kernel32:KERNEL32.dll
 0000:00000000       .debug$S                   0000000180000000     sf_runtime:sf_runtime.dll
 0000:00000000       .debug$S                   0000000180000000     kernel32:KERNEL32.dll
 0000:00000000       .debug$S                   0000000180000000     sf_runtime:sf_runtime.dll
 0000:00000000       .debug$S                   0000000180000000     kernel32:KERNEL32.dll
 0000:00000000       .debug$S                   0000000180000000     sf_runtime:sf_runtime.dll
 0000:00000000       .debug$S                   0000000180000000     kernel32:KERNEL32.dll
 0000:00000000       .debug$S                   0000000180000000     sf_runtime:sf_runtime.dll
 0000:00000000       .debug$S                   0000000180000000     kernel32:KERNEL32.dll
 0000:00000000       .debug$S                   0000000180000000     sf_runtime:sf_runtime.dll
 0000:00000000       .debug$S                   0000000180000000     kernel32:KERNEL32.dll
 0000:00000000       .debug$S                   0000000180000000     sf_runtime:sf_runtime.dll
 0000:00000000       .debug$S                   0000000180000000     kernel32:KERNEL32.dll
 0000:00000000       .debug$S                   0000000180000000     sf_runtime:sf_runtime.dll
 0000:00000000       .debug$S                   0000000180000000     kernel32:KERNEL32.dll
 0000:00000000       .debug$S                   0000000180000000     sf_runtime:sf_runtime.dll
 0000:00000000       .debug$S                   0000000180000000     kernel32:KERNEL32.dll
 0000:00000000       .debug$S                   0000000180000000     sf_runtime:sf_runtime.dll
 0000:00000000       .debug$S                   0000000180000000     kernel32:KERNEL32.dll
 0000:00000000       .debug$S                   0000000180000000     sf_runtime:sf_runtime.dll
 0000:00000000       .debug$S                   0000000180000000     kernel32:KERNEL32.dll
 0000:00000000       .debug$S                   0000000180000000     sf_runtime:sf_runtime.dll
 0000:00000000       .debug$S                   0000000180000000     kernel32:KERNEL32.dll
 0000:00000000       .debug$S                   0000000180000000     sf_runtime:sf_runtime.dll
 0000:00000000       .debug$S                   0000000180000000     kernel32:KERNEL32.dll
 0000:00000000       .debug$S                   0000000180000000     sf_runtime:sf_runtime.dll
 0000:00000000       .debug$S                   0000000180000000     kernel32:KERNEL32.dll
 0000:00000000       .debug$S                   0000000180000000     sf_runtime:sf_runtime.dll
 0000:00000000       .debug$S                   0000000180000000     kernel32:KERNEL32.dll
 0000:00000000       .debug$S                   0000000180000000     sf_runtime:sf_runtime.dll
 0000:00000000       .debug$S                   0000000180000000     kernel32:KERNEL32.dll
 0000:00000000       .debug$S                   0000000180000000     sf_runtime:sf_runtime.dll
 0000:00000000       .debug$S                   0000000180000000     kernel32:KERNEL32.dll
 0000:00000000       .debug$S                   0000000180000000     sf_runtime:sf_runtime.dll
 0000:00000000       .debug$S                   0000000180000000     sf_runtime:sf_runtime.dll
 0000:00000000       .debug$S                   0000000180000000     sf_runtime:sf_runtime.dll
 0000:00000000       .debug$S                   0000000180000000     sf_runtime:sf_runtime.dll
 0000:00000000       .debug$S                   0000000180000000     sf_runtime:sf_runtime.dll
 0000:00000000       .debug$S                   0000000180000000     sf_runtime:sf_runtime.dll
 0000:00000000       .debug$S                   0000000180000000     sf_runtime:sf_runtime.dll
 0000:00000000       .debug$S                   0000000180000000     sf_runtime:sf_runtime.dll
 0000:00000000       .debug$S                   0000000180000000     sf_runtime:sf_runtime.dll
 0000:00000000       .debug$S                   0000000180000000     sf_runtime:sf_runtime.dll
 0000:00000000       .debug$S                   0000000180000000     sf_runtime:sf_runtime.dll
 0000:00000000       .debug$S                   0000000180000000     sf_runtime:sf_runtime.dll
 0000:00000000       .debug$S                   0000000180000000     sf_runtime:sf_runtime.dll
 0000:00000000       .debug$S                   0000000180000000     sf_runtime:sf_runtime.dll
 0000:00000000       .debug$S                   0000000180000000     sf_runtime:sf_runtime.dll
 0000:00000000       .debug$S                   0000000180000000     sf_runtime:sf_runtime.dll
 0000:00000000       .debug$S                   0000000180000000     sf_runtime:sf_runtime.dll
 0000:00000000       .debug$S                   0000000180000000     sf_runtime:sf_runtime.dll
 0000:00000000       .debug$S                   0000000180000000     sf_runtime:sf_runtime.dll
 0000:00000000       .debug$S                   0000000180000000     sf_runtime:sf_runtime.dll
 0000:00000000       .debug$S                   0000000180000000     libmx:libmx.dll
 0000:00000000       .debug$S                   0000000180000000     libmx:libmx.dll
 0000:00000000       .debug$S                   0000000180000000     libmx:libmx.dll
 0000:00000000       .debug$S                   0000000180000000     libmx:libmx.dll
 0000:00000000       .debug$S                   0000000180000000     libmx:libmx.dll
 0000:00000000       .debug$S                   0000000180000000     libmx:libmx.dll
 0000:00000000       .debug$S                   0000000180000000     libmx:libmx.dll
 0000:00000000       .debug$S                   0000000180000000     libmx:libmx.dll
 0000:00000000       .debug$S                   0000000180000000     libmx:libmx.dll
 0000:00000000       .debug$S                   0000000180000000     libmx:libmx.dll
 0000:00000000       .debug$S                   0000000180000000     libmx:libmx.dll
 0000:00000000       .debug$S                   0000000180000000     libmx:libmx.dll
 0000:00000000       .debug$S                   0000000180000000     libemlrt:libemlrt.dll
 0001:00000b20       c1_b_eml_rand_mt19937ar    0000000180001b20 f   c1_RightInvariant_EKF.obj
 0001:00001410       c1_b_emlrt_marshallIn      0000000180002410 f   c1_RightInvariant_EKF.obj
 0001:00001520       c1_b_error                 0000000180002520 f   c1_RightInvariant_EKF.obj
 0001:000015e0       c1_b_sf_marshallIn         00000001800025e0 f   c1_RightInvariant_EKF.obj
 0001:000016b0       c1_b_sf_marshallOut        00000001800026b0 f   c1_RightInvariant_EKF.obj
 0001:00001720       c1_c_emlrt_marshallIn      0000000180002720 f   c1_RightInvariant_EKF.obj
 0001:00001790       c1_c_error                 0000000180002790 f   c1_RightInvariant_EKF.obj
 0001:00001850       c1_c_sf_marshallIn         0000000180002850 f   c1_RightInvariant_EKF.obj
 0001:000019c0       c1_c_sf_marshallOut        00000001800029c0 f   c1_RightInvariant_EKF.obj
 0001:00001a70       c1_chartstep_c1_RightInvariant_EKF 0000000180002a70 f   c1_RightInvariant_EKF.obj
 0001:00003ae0       c1_d_emlrt_marshallIn      0000000180004ae0 f   c1_RightInvariant_EKF.obj
 0001:00003bc0       c1_d_sf_marshallIn         0000000180004bc0 f   c1_RightInvariant_EKF.obj
 0001:00003d60       c1_d_sf_marshallOut        0000000180004d60 f   c1_RightInvariant_EKF.obj
 0001:00003e00       c1_e_emlrt_marshallIn      0000000180004e00 f   c1_RightInvariant_EKF.obj
 0001:00003ee0       c1_e_sf_marshallIn         0000000180004ee0 f   c1_RightInvariant_EKF.obj
 0001:00003fa0       c1_e_sf_marshallOut        0000000180004fa0 f   c1_RightInvariant_EKF.obj
 0001:00004060       c1_emlrt_marshallIn        0000000180005060 f   c1_RightInvariant_EKF.obj
 0001:000040d0       c1_error                   00000001800050d0 f   c1_RightInvariant_EKF.obj
 0001:00004190       c1_f_emlrt_marshallIn      0000000180005190 f   c1_RightInvariant_EKF.obj
 0001:000041f0       c1_f_sf_marshallIn         00000001800051f0 f   c1_RightInvariant_EKF.obj
 0001:00004310       c1_f_sf_marshallOut        0000000180005310 f   c1_RightInvariant_EKF.obj
 0001:000043e0       c1_g_emlrt_marshallIn      00000001800053e0 f   c1_RightInvariant_EKF.obj
 0001:00004490       c1_g_sf_marshallIn         0000000180005490 f   c1_RightInvariant_EKF.obj
 0001:000045b0       c1_g_sf_marshallOut        00000001800055b0 f   c1_RightInvariant_EKF.obj
 0001:00004620       c1_h_emlrt_marshallIn      0000000180005620 f   c1_RightInvariant_EKF.obj
 0001:000046d0       c1_j_emlrt_marshallIn      00000001800056d0 f   c1_RightInvariant_EKF.obj
 0001:00004790       c1_k_emlrt_marshallIn      0000000180005790 f   c1_RightInvariant_EKF.obj
 0001:00004810       c1_l_emlrt_marshallIn      0000000180005810 f   c1_RightInvariant_EKF.obj
 0001:00004880       c1_m_emlrt_marshallIn      0000000180005880 f   c1_RightInvariant_EKF.obj
 0001:00004950       c1_n_emlrt_marshallIn      0000000180005950 f   c1_RightInvariant_EKF.obj
 0001:00004a20       c1_o_emlrt_marshallIn      0000000180005a20 f   c1_RightInvariant_EKF.obj
 0001:00004ac0       c1_p_emlrt_marshallIn      0000000180005ac0 f   c1_RightInvariant_EKF.obj
 0001:00004b60       c1_q_emlrt_marshallIn      0000000180005b60 f   c1_RightInvariant_EKF.obj
 0001:00004bc0       c1_rand                    0000000180005bc0 f   c1_RightInvariant_EKF.obj
 0001:00004d90       c1_sf_marshallIn           0000000180005d90 f   c1_RightInvariant_EKF.obj
 0001:00005040       c1_sf_marshallOut          0000000180006040 f   c1_RightInvariant_EKF.obj
 0001:00005120       c1_update_debugger_state_c1_RightInvariant_EKF 0000000180006120 f   c1_RightInvariant_EKF.obj
 0001:00005130       chart_debug_initialization 0000000180006130 f   c1_RightInvariant_EKF.obj
 0001:00005a00       chart_debug_initialize_data_addresses 0000000180006a00 f   c1_RightInvariant_EKF.obj
 0001:00005b70       disable_c1_RightInvariant_EKF 0000000180006b70 f   c1_RightInvariant_EKF.obj
 0001:00005b90       enable_c1_RightInvariant_EKF 0000000180006b90 f   c1_RightInvariant_EKF.obj
 0001:00005bb0       finalize_c1_RightInvariant_EKF 0000000180006bb0 f   c1_RightInvariant_EKF.obj
 0001:00005bc0       get_sim_state_c1_RightInvariant_EKF 0000000180006bc0 f   c1_RightInvariant_EKF.obj
 0001:00005f20       initSimStructsc1_RightInvariant_EKF 0000000180006f20 f   c1_RightInvariant_EKF.obj
 0001:00005f30       init_dsm_address_info      0000000180006f30 f   c1_RightInvariant_EKF.obj
 0001:00005f40       init_script_number_translation 0000000180006f40 f   c1_RightInvariant_EKF.obj
 0001:00005fc0       init_simulink_io_address   0000000180006fc0 f   c1_RightInvariant_EKF.obj
 0001:00006050       initialize_c1_RightInvariant_EKF 0000000180007050 f   c1_RightInvariant_EKF.obj
 0001:000060b0       initialize_params_c1_RightInvariant_EKF 00000001800070b0 f   c1_RightInvariant_EKF.obj
 0001:000060c0       mdlProcessParameters_c1_RightInvariant_EKF 00000001800070c0 f   c1_RightInvariant_EKF.obj
 0001:00006150       mdlRTW_c1_RightInvariant_EKF 0000000180007150 f   c1_RightInvariant_EKF.obj
 0001:00006190       mdlSetWorkWidths_c1_RightInvariant_EKF 0000000180007190 f   c1_RightInvariant_EKF.obj
 0001:00006530       mdlStart_c1_RightInvariant_EKF 0000000180007530 f   c1_RightInvariant_EKF.obj
 0001:000066a0       mdl_start_c1_RightInvariant_EKF 00000001800076a0 f   c1_RightInvariant_EKF.obj
 0001:000066b0       set_sim_state_c1_RightInvariant_EKF 00000001800076b0 f   c1_RightInvariant_EKF.obj
 0001:00007660       sf_gateway_c1_RightInvariant_EKF 0000000180008660 f   c1_RightInvariant_EKF.obj
 0001:00007980       sf_get_instance_specialization 0000000180008980 f   c1_RightInvariant_EKF.obj
 0001:00007990       sf_get_sim_state_info_c1_RightInvariant_EKF 0000000180008990 f   c1_RightInvariant_EKF.obj
 0001:00007aa0       sf_opaque_disable_c1_RightInvariant_EKF 0000000180008aa0 f   c1_RightInvariant_EKF.obj
 0001:00007ac0       sf_opaque_enable_c1_RightInvariant_EKF 0000000180008ac0 f   c1_RightInvariant_EKF.obj
 0001:00007ae0       sf_opaque_gateway_c1_RightInvariant_EKF 0000000180008ae0 f   c1_RightInvariant_EKF.obj
 0001:00007af0       sf_opaque_get_sim_state_c1_RightInvariant_EKF 0000000180008af0 f   c1_RightInvariant_EKF.obj
 0001:00007b10       sf_opaque_initialize_c1_RightInvariant_EKF 0000000180008b10 f   c1_RightInvariant_EKF.obj
 0001:00007bb0       sf_opaque_set_sim_state_c1_RightInvariant_EKF 0000000180008bb0 f   c1_RightInvariant_EKF.obj
 0001:00007bd0       sf_opaque_terminate_c1_RightInvariant_EKF 0000000180008bd0 f   c1_RightInvariant_EKF.obj
 0001:00007c70       c2_b_emlrt_marshallIn      0000000180008c70 f   c2_RightInvariant_EKF.obj
 0001:00007d50       c2_b_sf_marshallIn         0000000180008d50 f   c2_RightInvariant_EKF.obj
 0001:00007e20       c2_b_sf_marshallOut        0000000180008e20 f   c2_RightInvariant_EKF.obj
 0001:00007ea0       c2_c_emlrt_marshallIn      0000000180008ea0 f   c2_RightInvariant_EKF.obj
 0001:00007f10       c2_c_sf_marshallIn         0000000180008f10 f   c2_RightInvariant_EKF.obj
 0001:00008030       c2_c_sf_marshallOut        0000000180009030 f   c2_RightInvariant_EKF.obj
 0001:00008110       c2_d_emlrt_marshallIn      0000000180009110 f   c2_RightInvariant_EKF.obj
 0001:000081c0       c2_d_sf_marshallIn         00000001800091c0 f   c2_RightInvariant_EKF.obj
 0001:00008360       c2_d_sf_marshallOut        0000000180009360 f   c2_RightInvariant_EKF.obj
 0001:00008400       c2_e_emlrt_marshallIn      0000000180009400 f   c2_RightInvariant_EKF.obj
 0001:000084e0       c2_e_sf_marshallIn         00000001800094e0 f   c2_RightInvariant_EKF.obj
 0001:00008600       c2_e_sf_marshallOut        0000000180009600 f   c2_RightInvariant_EKF.obj
 0001:000086b0       c2_emlrt_marshallIn        00000001800096b0 f   c2_RightInvariant_EKF.obj
 0001:00008710       c2_error                   0000000180009710 f   c2_RightInvariant_EKF.obj
 0001:000087d0       c2_f_emlrt_marshallIn      00000001800097d0 f   c2_RightInvariant_EKF.obj
 0001:00008880       c2_f_sf_marshallIn         0000000180009880 f   c2_RightInvariant_EKF.obj
 0001:00008a20       c2_f_sf_marshallOut        0000000180009a20 f   c2_RightInvariant_EKF.obj
 0001:00008a90       c2_g_emlrt_marshallIn      0000000180009a90 f   c2_RightInvariant_EKF.obj
 0001:00008b80       c2_g_sf_marshallOut        0000000180009b80 f   c2_RightInvariant_EKF.obj
 0001:00008c50       c2_i_emlrt_marshallIn      0000000180009c50 f   c2_RightInvariant_EKF.obj
 0001:00008cf0       c2_j_emlrt_marshallIn      0000000180009cf0 f   c2_RightInvariant_EKF.obj
 0001:00008d50       c2_sf_marshallIn           0000000180009d50 f   c2_RightInvariant_EKF.obj
 0001:00008ec0       c2_sf_marshallOut          0000000180009ec0 f   c2_RightInvariant_EKF.obj
 0001:00008fa0       c2_update_debugger_state_c2_RightInvariant_EKF 0000000180009fa0 f   c2_RightInvariant_EKF.obj
 0001:00008fb0       chart_debug_initialization 0000000180009fb0 f   c2_RightInvariant_EKF.obj
 0001:00009a30       chart_debug_initialize_data_addresses 000000018000aa30 f   c2_RightInvariant_EKF.obj
 0001:00009ba0       disable_c2_RightInvariant_EKF 000000018000aba0 f   c2_RightInvariant_EKF.obj
 0001:00009bc0       enable_c2_RightInvariant_EKF 000000018000abc0 f   c2_RightInvariant_EKF.obj
 0001:00009be0       finalize_c2_RightInvariant_EKF 000000018000abe0 f   c2_RightInvariant_EKF.obj
 0001:00009bf0       get_sim_state_c2_RightInvariant_EKF 000000018000abf0 f   c2_RightInvariant_EKF.obj
 0001:00009d30       initSimStructsc2_RightInvariant_EKF 000000018000ad30 f   c2_RightInvariant_EKF.obj
 0001:00009d40       init_dsm_address_info      000000018000ad40 f   c2_RightInvariant_EKF.obj
 0001:00009d50       init_script_number_translation 000000018000ad50 f   c2_RightInvariant_EKF.obj
 0001:00009e30       init_simulink_io_address   000000018000ae30 f   c2_RightInvariant_EKF.obj
 0001:00009ea0       initialize_c2_RightInvariant_EKF 000000018000aea0 f   c2_RightInvariant_EKF.obj
 0001:00009ef0       initialize_params_c2_RightInvariant_EKF 000000018000aef0 f   c2_RightInvariant_EKF.obj
 0001:00009f00       mdlProcessParameters_c2_RightInvariant_EKF 000000018000af00 f   c2_RightInvariant_EKF.obj
 0001:00009f90       mdlRTW_c2_RightInvariant_EKF 000000018000af90 f   c2_RightInvariant_EKF.obj
 0001:00009fd0       mdlSetWorkWidths_c2_RightInvariant_EKF 000000018000afd0 f   c2_RightInvariant_EKF.obj
 0001:0000a370       mdlStart_c2_RightInvariant_EKF 000000018000b370 f   c2_RightInvariant_EKF.obj
 0001:0000a4e0       mdl_start_c2_RightInvariant_EKF 000000018000b4e0 f   c2_RightInvariant_EKF.obj
 0001:0000a4f0       set_sim_state_c2_RightInvariant_EKF 000000018000b4f0 f   c2_RightInvariant_EKF.obj
 0001:0000b180       sf_gateway_c2_RightInvariant_EKF 000000018000c180 f   c2_RightInvariant_EKF.obj
 0001:0000d9c0       sf_get_instance_specialization 000000018000e9c0 f   c2_RightInvariant_EKF.obj
 0001:0000d9d0       sf_get_sim_state_info_c2_RightInvariant_EKF 000000018000e9d0 f   c2_RightInvariant_EKF.obj
 0001:0000dae0       sf_opaque_disable_c2_RightInvariant_EKF 000000018000eae0 f   c2_RightInvariant_EKF.obj
 0001:0000db00       sf_opaque_enable_c2_RightInvariant_EKF 000000018000eb00 f   c2_RightInvariant_EKF.obj
 0001:0000db20       sf_opaque_gateway_c2_RightInvariant_EKF 000000018000eb20 f   c2_RightInvariant_EKF.obj
 0001:0000db30       sf_opaque_get_sim_state_c2_RightInvariant_EKF 000000018000eb30 f   c2_RightInvariant_EKF.obj
 0001:0000db50       sf_opaque_initialize_c2_RightInvariant_EKF 000000018000eb50 f   c2_RightInvariant_EKF.obj
 0001:0000dba0       sf_opaque_set_sim_state_c2_RightInvariant_EKF 000000018000eba0 f   c2_RightInvariant_EKF.obj
 0001:0000dbc0       sf_opaque_terminate_c2_RightInvariant_EKF 000000018000ebc0 f   c2_RightInvariant_EKF.obj
 0001:0000dc60       c40_b_emlrt_marshallIn     000000018000ec60 f   c40_RightInvariant_EKF.obj
 0001:0000dcd0       c40_b_sf_marshallIn        000000018000ecd0 f   c40_RightInvariant_EKF.obj
 0001:0000ddf0       c40_b_sf_marshallOut       000000018000edf0 f   c40_RightInvariant_EKF.obj
 0001:0000de90       c40_c_emlrt_marshallIn     000000018000ee90 f   c40_RightInvariant_EKF.obj
 0001:0000df70       c40_c_sf_marshallIn        000000018000ef70 f   c40_RightInvariant_EKF.obj
 0001:0000e0e0       c40_c_sf_marshallOut       000000018000f0e0 f   c40_RightInvariant_EKF.obj
 0001:0000e1b0       c40_chartstep_c40_RightInvariant_EKF 000000018000f1b0 f   c40_RightInvariant_EKF.obj
 0001:00013ce0       c40_d_emlrt_marshallIn     0000000180014ce0 f   c40_RightInvariant_EKF.obj
 0001:00013d90       c40_d_sf_marshallIn        0000000180014d90 f   c40_RightInvariant_EKF.obj
 0001:00013f30       c40_d_sf_marshallOut       0000000180014f30 f   c40_RightInvariant_EKF.obj
 0001:00014010       c40_e_emlrt_marshallIn     0000000180015010 f   c40_RightInvariant_EKF.obj
 0001:00014070       c40_e_sf_marshallIn        0000000180015070 f   c40_RightInvariant_EKF.obj
 0001:00014370       c40_e_sf_marshallOut       0000000180015370 f   c40_RightInvariant_EKF.obj
 0001:000143f0       c40_emlrt_marshallIn       00000001800153f0 f   c40_RightInvariant_EKF.obj
 0001:00014490       c40_error                  0000000180015490 f   c40_RightInvariant_EKF.obj
 0001:00014550       c40_f_emlrt_marshallIn     0000000180015550 f   c40_RightInvariant_EKF.obj
 0001:00014630       c40_f_sf_marshallIn        0000000180015630 f   c40_RightInvariant_EKF.obj
 0001:000147d0       c40_f_sf_marshallOut       00000001800157d0 f   c40_RightInvariant_EKF.obj
 0001:000148a0       c40_g_emlrt_marshallIn     00000001800158a0 f   c40_RightInvariant_EKF.obj
 0001:00014980       c40_g_sf_marshallOut       0000000180015980 f   c40_RightInvariant_EKF.obj
 0001:00014c20       c40_h_emlrt_marshallIn     0000000180015c20 f   c40_RightInvariant_EKF.obj
 0001:00014d10       c40_h_sf_marshallOut       0000000180015d10 f   c40_RightInvariant_EKF.obj
 0001:00014df0       c40_i_emlrt_marshallIn     0000000180015df0 f   c40_RightInvariant_EKF.obj
 0001:00014ee0       c40_i_sf_marshallOut       0000000180015ee0 f   c40_RightInvariant_EKF.obj
 0001:00014f50       c40_k_emlrt_marshallIn     0000000180015f50 f   c40_RightInvariant_EKF.obj
 0001:00014ff0       c40_l_emlrt_marshallIn     0000000180015ff0 f   c40_RightInvariant_EKF.obj
 0001:00015050       c40_sf_marshallIn          0000000180016050 f   c40_RightInvariant_EKF.obj
 0001:00015120       c40_sf_marshallOut         0000000180016120 f   c40_RightInvariant_EKF.obj
 0001:00015190       c40_update_debugger_state_c40_RightInvariant_EKF 0000000180016190 f   c40_RightInvariant_EKF.obj
 0001:000151a0       chart_debug_initialization 00000001800161a0 f   c40_RightInvariant_EKF.obj
 0001:00016870       chart_debug_initialize_data_addresses 0000000180017870 f   c40_RightInvariant_EKF.obj
 0001:00016b30       disable_c40_RightInvariant_EKF 0000000180017b30 f   c40_RightInvariant_EKF.obj
 0001:00016b50       enable_c40_RightInvariant_EKF 0000000180017b50 f   c40_RightInvariant_EKF.obj
 0001:00016b70       finalize_c40_RightInvariant_EKF 0000000180017b70 f   c40_RightInvariant_EKF.obj
 0001:00016b80       get_sim_state_c40_RightInvariant_EKF 0000000180017b80 f   c40_RightInvariant_EKF.obj
 0001:00016e00       initSimStructsc40_RightInvariant_EKF 0000000180017e00 f   c40_RightInvariant_EKF.obj
 0001:00016e10       init_dsm_address_info      0000000180017e10 f   c40_RightInvariant_EKF.obj
 0001:00016e20       init_script_number_translation 0000000180017e20 f   c40_RightInvariant_EKF.obj
 0001:00017050       init_simulink_io_address   0000000180018050 f   c40_RightInvariant_EKF.obj
 0001:00017140       initialize_c40_RightInvariant_EKF 0000000180018140 f   c40_RightInvariant_EKF.obj
 0001:00017190       initialize_params_c40_RightInvariant_EKF 0000000180018190 f   c40_RightInvariant_EKF.obj
 0001:000171a0       mdlProcessParameters_c40_RightInvariant_EKF 00000001800181a0 f   c40_RightInvariant_EKF.obj
 0001:00017230       mdlRTW_c40_RightInvariant_EKF 0000000180018230 f   c40_RightInvariant_EKF.obj
 0001:00017270       mdlSetWorkWidths_c40_RightInvariant_EKF 0000000180018270 f   c40_RightInvariant_EKF.obj
 0001:00017720       mdlStart_c40_RightInvariant_EKF 0000000180018720 f   c40_RightInvariant_EKF.obj
 0001:00017890       mdl_start_c40_RightInvariant_EKF 0000000180018890 f   c40_RightInvariant_EKF.obj
 0001:000178a0       set_sim_state_c40_RightInvariant_EKF 00000001800188a0 f   c40_RightInvariant_EKF.obj
 0001:00018fb0       sf_gateway_c40_RightInvariant_EKF 0000000180019fb0 f   c40_RightInvariant_EKF.obj
 0001:000195a0       sf_get_instance_specialization 000000018001a5a0 f   c40_RightInvariant_EKF.obj
 0001:000195b0       sf_get_sim_state_info_c40_RightInvariant_EKF 000000018001a5b0 f   c40_RightInvariant_EKF.obj
 0001:000196c0       sf_opaque_disable_c40_RightInvariant_EKF 000000018001a6c0 f   c40_RightInvariant_EKF.obj
 0001:000196e0       sf_opaque_enable_c40_RightInvariant_EKF 000000018001a6e0 f   c40_RightInvariant_EKF.obj
 0001:00019700       sf_opaque_gateway_c40_RightInvariant_EKF 000000018001a700 f   c40_RightInvariant_EKF.obj
 0001:00019710       sf_opaque_get_sim_state_c40_RightInvariant_EKF 000000018001a710 f   c40_RightInvariant_EKF.obj
 0001:00019730       sf_opaque_initialize_c40_RightInvariant_EKF 000000018001a730 f   c40_RightInvariant_EKF.obj
 0001:00019780       sf_opaque_set_sim_state_c40_RightInvariant_EKF 000000018001a780 f   c40_RightInvariant_EKF.obj
 0001:000197a0       sf_opaque_terminate_c40_RightInvariant_EKF 000000018001a7a0 f   c40_RightInvariant_EKF.obj
 0001:00019810       ProcessMexSfunctionCmdLineCall 000000018001a810 f   RightInvariant_EKF_sfun_registry.obj
 0001:00019a50       _CreateSimStruct           000000018001aa50 f   RightInvariant_EKF_sfun_registry.obj
 0001:00019b60       _ProcessMexSfunctionCmdLineCall 000000018001ab60 f   RightInvariant_EKF_sfun_registry.obj
 0001:0001a020       _RegNumInputPortsCB        000000018001b020 f   RightInvariant_EKF_sfun_registry.obj
 0001:0001a070       _RegNumOutputPortsCB       000000018001b070 f   RightInvariant_EKF_sfun_registry.obj
 0001:0001a0d0       _ssFatalError              000000018001b0d0 f   RightInvariant_EKF_sfun_registry.obj
 0001:0001b320       mdlDerivatives             000000018001c320 f   RightInvariant_EKF_sfun_registry.obj
 0001:0001b330       mdlDisable                 000000018001c330 f   RightInvariant_EKF_sfun_registry.obj
 0001:0001b340       mdlEnable                  000000018001c340 f   RightInvariant_EKF_sfun_registry.obj
 0001:0001b350       mdlExtModeExec             000000018001c350 f   RightInvariant_EKF_sfun_registry.obj
 0001:0001b380       mdlGetTimeOfNextVarHit     000000018001c380 f   RightInvariant_EKF_sfun_registry.obj
 0001:0001b3b0       mdlInitializeConditions    000000018001c3b0 f   RightInvariant_EKF_sfun_registry.obj
 0001:0001b3c0       mdlInitializeSampleTimes   000000018001c3c0 f   RightInvariant_EKF_sfun_registry.obj
 0001:0001b3e0       mdlInitializeSizes         000000018001c3e0 f   RightInvariant_EKF_sfun_registry.obj
 0001:0001b400       mdlOutputs                 000000018001c400 f   RightInvariant_EKF_sfun_registry.obj
 0001:0001b410       mdlProcessParameters       000000018001c410 f   RightInvariant_EKF_sfun_registry.obj
 0001:0001b430       mdlRTW                     000000018001c430 f   RightInvariant_EKF_sfun_registry.obj
 0001:0001b4a0       mdlSetWorkWidths           000000018001c4a0 f   RightInvariant_EKF_sfun_registry.obj
 0001:0001b4c0       mdlStart                   000000018001c4c0 f   RightInvariant_EKF_sfun_registry.obj
 0001:0001b4d0       mdlTerminate               000000018001c4d0 f   RightInvariant_EKF_sfun_registry.obj
 0001:0001b4e0       mdlUpdate                  000000018001c4e0 f   RightInvariant_EKF_sfun_registry.obj
 0001:0001b4f0       mdlZeroCrossings           000000018001c4f0 f   RightInvariant_EKF_sfun_registry.obj
 0001:0001b500       mdl_derivatives_processing 000000018001c500 f   RightInvariant_EKF_sfun_registry.obj
 0001:0001b530       mdl_disable_processing     000000018001c530 f   RightInvariant_EKF_sfun_registry.obj
 0001:0001b550       mdl_enable_processing      000000018001c550 f   RightInvariant_EKF_sfun_registry.obj
 0001:0001b570       mdl_ext_mode_exec_processing 000000018001c570 f   RightInvariant_EKF_sfun_registry.obj
 0001:0001b5a0       mdl_initialize_conditions_processing 000000018001c5a0 f   RightInvariant_EKF_sfun_registry.obj
 0001:0001b5d0       mdl_outputs_continuous_legacy 000000018001c5d0 f   RightInvariant_EKF_sfun_registry.obj
 0001:0001b650       mdl_outputs_processing     000000018001c650 f   RightInvariant_EKF_sfun_registry.obj
 0001:0001b6f0       mdl_start_processing       000000018001c6f0 f   RightInvariant_EKF_sfun_registry.obj
 0001:0001b760       mdl_terminate_processing   000000018001c760 f   RightInvariant_EKF_sfun_registry.obj
 0001:0001b7e0       mdl_update_processing      000000018001c7e0 f   RightInvariant_EKF_sfun_registry.obj
 0001:0001b810       mdl_zeroCrossings_processing 000000018001c810 f   RightInvariant_EKF_sfun_registry.obj
 0001:0001c1e8       $LN148                     000000018001d1e8     RightInvariant_EKF_sfun_registry.obj
 0001:0001c2b0       sf_debug_api_wrapper       000000018001d2b0 f   RightInvariant_EKF_sfun_registry.obj
 0001:0001cf54       $LN17                      000000018001df54     RightInvariant_EKF_sfun_registry.obj
 0001:0001d930       $LN28                      000000018001e930     RightInvariant_EKF_sfun_registry.obj
 0001:0001dbf8       $LN47                      000000018001ebf8     RightInvariant_EKF_sfun_registry.obj
 0001:0001de04       $LN42                      000000018001ee04     RightInvariant_EKF_sfun_registry.obj
 0001:0001e1e0       output1                    000000018001f1e0 f   p_RightToeBottom_src.obj
 0001:0001f160       output1                    0000000180020160 f   p_LeftToeBottom_src.obj
 0001:00020110       output1                    0000000180021110 f   J_RightToeBottom_src.obj
 0001:000249b0       output1                    00000001800259b0 f   J_LeftToeBottom_src.obj
 0001:000292a0       output1                    000000018002a2a0 f   p_VectorNav_to_RightToeBottom_src.obj
 0001:00029df0       output1                    000000018002adf0 f   R_VectorNav_to_RightToeBottom_src.obj
 0001:0002a370       output1                    000000018002b370 f   p_VectorNav_to_LeftToeBottom_src.obj
 0001:0002aee0       output1                    000000018002bee0 f   R_VectorNav_to_LeftToeBottom_src.obj
 0001:0002b470       output1                    000000018002c470 f   J_VectorNav_to_RightToeBottom_src.obj
 0001:0002da70       output1                    000000018002ea70 f   J_VectorNav_to_LeftToeBottom_src.obj
 0001:0002ffc0       output1                    0000000180030fc0 f   p_VectorNav_to_Pelvis_src.obj
 0001:00030060       output1                    0000000180031060 f   R_VectorNav_to_Pelvis_src.obj
 0001:00030b00       c21_b_emlrt_marshallIn     0000000180031b00 f   StateEstimation_sfun:c21_StateEstimation.obj
 0001:00030bb0       c21_b_sf_marshallIn        0000000180031bb0 f   StateEstimation_sfun:c21_StateEstimation.obj
 0001:00030c80       c21_b_sf_marshallOut       0000000180031c80 f   StateEstimation_sfun:c21_StateEstimation.obj
 0001:00030d00       c21_c_emlrt_marshallIn     0000000180031d00 f   StateEstimation_sfun:c21_StateEstimation.obj
 0001:00030d70       c21_c_sf_marshallIn        0000000180031d70 f   StateEstimation_sfun:c21_StateEstimation.obj
 0001:00031070       c21_c_sf_marshallOut       0000000180032070 f   StateEstimation_sfun:c21_StateEstimation.obj
 0001:00031150       c21_d_emlrt_marshallIn     0000000180032150 f   StateEstimation_sfun:c21_StateEstimation.obj
 0001:00031240       c21_d_sf_marshallIn        0000000180032240 f   StateEstimation_sfun:c21_StateEstimation.obj
 0001:000313e0       c21_d_sf_marshallOut       00000001800323e0 f   StateEstimation_sfun:c21_StateEstimation.obj
 0001:00031450       c21_e_emlrt_marshallIn     0000000180032450 f   StateEstimation_sfun:c21_StateEstimation.obj
 0001:00031540       c21_e_sf_marshallIn        0000000180032540 f   StateEstimation_sfun:c21_StateEstimation.obj
 0001:000316e0       c21_e_sf_marshallOut       00000001800326e0 f   StateEstimation_sfun:c21_StateEstimation.obj
 0001:00031980       c21_emlrt_marshallIn       0000000180032980 f   StateEstimation_sfun:c21_StateEstimation.obj
 0001:00031a60       c21_f_emlrt_marshallIn     0000000180032a60 f   StateEstimation_sfun:c21_StateEstimation.obj
 0001:00031b40       c21_f_sf_marshallOut       0000000180032b40 f   StateEstimation_sfun:c21_StateEstimation.obj
 0001:00031c10       c21_h_emlrt_marshallIn     0000000180032c10 f   StateEstimation_sfun:c21_StateEstimation.obj
 0001:00031cb0       c21_i_emlrt_marshallIn     0000000180032cb0 f   StateEstimation_sfun:c21_StateEstimation.obj
 0001:00031d10       c21_sf_marshallIn          0000000180032d10 f   StateEstimation_sfun:c21_StateEstimation.obj
 0001:00031e30       c21_sf_marshallOut         0000000180032e30 f   StateEstimation_sfun:c21_StateEstimation.obj
 0001:00031ed0       c21_update_debugger_state_c21_StateEstimation 0000000180032ed0 f   StateEstimation_sfun:c21_StateEstimation.obj
 0001:00031ee0       chart_debug_initialization 0000000180032ee0 f   StateEstimation_sfun:c21_StateEstimation.obj
 0001:00032af0       chart_debug_initialize_data_addresses 0000000180033af0 f   StateEstimation_sfun:c21_StateEstimation.obj
 0001:00032c60       disable_c21_StateEstimation 0000000180033c60 f   StateEstimation_sfun:c21_StateEstimation.obj
 0001:00032c80       enable_c21_StateEstimation 0000000180033c80 f   StateEstimation_sfun:c21_StateEstimation.obj
 0001:00032ca0       finalize_c21_StateEstimation 0000000180033ca0 f   StateEstimation_sfun:c21_StateEstimation.obj
 0001:00032cb0       get_sim_state_c21_StateEstimation 0000000180033cb0 f   StateEstimation_sfun:c21_StateEstimation.obj
 0001:00032dd0       initSimStructsc21_StateEstimation 0000000180033dd0 f   StateEstimation_sfun:c21_StateEstimation.obj
 0001:00032de0       init_dsm_address_info      0000000180033de0 f   StateEstimation_sfun:c21_StateEstimation.obj
 0001:00032df0       init_script_number_translation 0000000180033df0 f   StateEstimation_sfun:c21_StateEstimation.obj
 0001:00032f00       init_simulink_io_address   0000000180033f00 f   StateEstimation_sfun:c21_StateEstimation.obj
 0001:00032f70       initialize_c21_StateEstimation 0000000180033f70 f   StateEstimation_sfun:c21_StateEstimation.obj
 0001:00032fc0       initialize_params_c21_StateEstimation 0000000180033fc0 f   StateEstimation_sfun:c21_StateEstimation.obj
 0001:00032fd0       mdlProcessParameters_c21_StateEstimation 0000000180033fd0 f   StateEstimation_sfun:c21_StateEstimation.obj
 0001:00033060       mdlRTW_c21_StateEstimation 0000000180034060 f   StateEstimation_sfun:c21_StateEstimation.obj
 0001:000330a0       mdlSetWorkWidths_c21_StateEstimation 00000001800340a0 f   StateEstimation_sfun:c21_StateEstimation.obj
 0001:00033440       mdlStart_c21_StateEstimation 0000000180034440 f   StateEstimation_sfun:c21_StateEstimation.obj
 0001:000335b0       mdl_start_c21_StateEstimation 00000001800345b0 f   StateEstimation_sfun:c21_StateEstimation.obj
 0001:000335c0       set_sim_state_c21_StateEstimation 00000001800345c0 f   StateEstimation_sfun:c21_StateEstimation.obj
 0001:00034140       sf_gateway_c21_StateEstimation 0000000180035140 f   StateEstimation_sfun:c21_StateEstimation.obj
 0001:000362b0       sf_get_instance_specialization 00000001800372b0 f   StateEstimation_sfun:c21_StateEstimation.obj
 0001:000362c0       sf_get_sim_state_info_c21_StateEstimation 00000001800372c0 f   StateEstimation_sfun:c21_StateEstimation.obj
 0001:000363d0       sf_opaque_disable_c21_StateEstimation 00000001800373d0 f   StateEstimation_sfun:c21_StateEstimation.obj
 0001:000363f0       sf_opaque_enable_c21_StateEstimation 00000001800373f0 f   StateEstimation_sfun:c21_StateEstimation.obj
 0001:00036410       sf_opaque_gateway_c21_StateEstimation 0000000180037410 f   StateEstimation_sfun:c21_StateEstimation.obj
 0001:00036420       sf_opaque_get_sim_state_c21_StateEstimation 0000000180037420 f   StateEstimation_sfun:c21_StateEstimation.obj
 0001:00036440       sf_opaque_initialize_c21_StateEstimation 0000000180037440 f   StateEstimation_sfun:c21_StateEstimation.obj
 0001:00036490       sf_opaque_set_sim_state_c21_StateEstimation 0000000180037490 f   StateEstimation_sfun:c21_StateEstimation.obj
 0001:000364b0       sf_opaque_terminate_c21_StateEstimation 00000001800374b0 f   StateEstimation_sfun:c21_StateEstimation.obj
 0001:00036520       c41_Rotation_to_Quaternion 0000000180037520 f   StateEstimation_sfun:c41_StateEstimation.obj
 0001:00037800       c41_abs                    0000000180038800 f   StateEstimation_sfun:c41_StateEstimation.obj
 0001:00037850       c41_b_emlrt_marshallIn     0000000180038850 f   StateEstimation_sfun:c41_StateEstimation.obj
 0001:00037930       c41_b_error                0000000180038930 f   StateEstimation_sfun:c41_StateEstimation.obj
 0001:00037a50       c41_b_sf_marshallIn        0000000180038a50 f   StateEstimation_sfun:c41_StateEstimation.obj
 0001:00037b70       c41_b_sf_marshallOut       0000000180038b70 f   StateEstimation_sfun:c41_StateEstimation.obj
 0001:00037c10       c41_c_emlrt_marshallIn     0000000180038c10 f   StateEstimation_sfun:c41_StateEstimation.obj
 0001:00037cf0       c41_c_error                0000000180038cf0 f   StateEstimation_sfun:c41_StateEstimation.obj
 0001:00037e10       c41_c_sf_marshallIn        0000000180038e10 f   StateEstimation_sfun:c41_StateEstimation.obj
 0001:00037f30       c41_c_sf_marshallOut       0000000180038f30 f   StateEstimation_sfun:c41_StateEstimation.obj
 0001:00037fe0       c41_chartstep_c41_StateEstimation 0000000180038fe0 f   StateEstimation_sfun:c41_StateEstimation.obj
 0001:0003b8a0       c41_check_forloop_overflow_error 000000018003c8a0 f   StateEstimation_sfun:c41_StateEstimation.obj
 0001:0003b9d0       c41_d_emlrt_marshallIn     000000018003c9d0 f   StateEstimation_sfun:c41_StateEstimation.obj
 0001:0003ba80       c41_d_sf_marshallIn        000000018003ca80 f   StateEstimation_sfun:c41_StateEstimation.obj
 0001:0003bb50       c41_d_sf_marshallOut       000000018003cb50 f   StateEstimation_sfun:c41_StateEstimation.obj
 0001:0003c380       c41_e_emlrt_marshallIn     000000018003d380 f   StateEstimation_sfun:c41_StateEstimation.obj
 0001:0003c460       c41_e_sf_marshallIn        000000018003d460 f   StateEstimation_sfun:c41_StateEstimation.obj
 0001:0003c550       c41_e_sf_marshallOut       000000018003d550 f   StateEstimation_sfun:c41_StateEstimation.obj
 0001:0003c5c0       c41_emlrt_marshallIn       000000018003d5c0 f   StateEstimation_sfun:c41_StateEstimation.obj
 0001:0003c620       c41_error                  000000018003d620 f   StateEstimation_sfun:c41_StateEstimation.obj
 0001:0003c6e0       c41_f_emlrt_marshallIn     000000018003d6e0 f   StateEstimation_sfun:c41_StateEstimation.obj
 0001:0003c790       c41_f_sf_marshallIn        000000018003d790 f   StateEstimation_sfun:c41_StateEstimation.obj
 0001:0003c8d0       c41_f_sf_marshallOut       000000018003d8d0 f   StateEstimation_sfun:c41_StateEstimation.obj
 0001:0003c950       c41_g_emlrt_marshallIn     000000018003d950 f   StateEstimation_sfun:c41_StateEstimation.obj
 0001:0003c9c0       c41_g_sf_marshallIn        000000018003d9c0 f   StateEstimation_sfun:c41_StateEstimation.obj
 0001:0003cb60       c41_g_sf_marshallOut       000000018003db60 f   StateEstimation_sfun:c41_StateEstimation.obj
 0001:0003cc10       c41_h_emlrt_marshallIn     000000018003dc10 f   StateEstimation_sfun:c41_StateEstimation.obj
 0001:0003cc90       c41_h_sf_marshallIn        000000018003dc90 f   StateEstimation_sfun:c41_StateEstimation.obj
 0001:0003ce30       c41_h_sf_marshallOut       000000018003de30 f   StateEstimation_sfun:c41_StateEstimation.obj
 0001:0003cf00       c41_i_emlrt_marshallIn     000000018003df00 f   StateEstimation_sfun:c41_StateEstimation.obj
 0001:0003cfc0       c41_i_sf_marshallOut       000000018003dfc0 f   StateEstimation_sfun:c41_StateEstimation.obj
 0001:0003d0a0       c41_j_emlrt_marshallIn     000000018003e0a0 f   StateEstimation_sfun:c41_StateEstimation.obj
 0001:0003d180       c41_k_emlrt_marshallIn     000000018003e180 f   StateEstimation_sfun:c41_StateEstimation.obj
 0001:0003d270       c41_m_emlrt_marshallIn     000000018003e270 f   StateEstimation_sfun:c41_StateEstimation.obj
 0001:0003d310       c41_n_emlrt_marshallIn     000000018003e310 f   StateEstimation_sfun:c41_StateEstimation.obj
 0001:0003d370       c41_outputs_bus_io         000000018003e370 f   StateEstimation_sfun:c41_StateEstimation.obj
 0001:0003d500       c41_sf_marshallIn          000000018003e500 f   StateEstimation_sfun:c41_StateEstimation.obj
 0001:0003d670       c41_sf_marshallOut         000000018003e670 f   StateEstimation_sfun:c41_StateEstimation.obj
 0001:0003d740       c41_update_debugger_state_c41_StateEstimation 000000018003e740 f   StateEstimation_sfun:c41_StateEstimation.obj
 0001:0003d750       chart_debug_initialization 000000018003e750 f   StateEstimation_sfun:c41_StateEstimation.obj
 0001:0003e550       chart_debug_initialize_data_addresses 000000018003f550 f   StateEstimation_sfun:c41_StateEstimation.obj
 0001:0003e6f0       disable_c41_StateEstimation 000000018003f6f0 f   StateEstimation_sfun:c41_StateEstimation.obj
 0001:0003e710       enable_c41_StateEstimation 000000018003f710 f   StateEstimation_sfun:c41_StateEstimation.obj
 0001:0003e730       finalize_c41_StateEstimation 000000018003f730 f   StateEstimation_sfun:c41_StateEstimation.obj
 0001:0003e740       get_sim_state_c41_StateEstimation 000000018003f740 f   StateEstimation_sfun:c41_StateEstimation.obj
 0001:0003e9c0       initSimStructsc41_StateEstimation 000000018003f9c0 f   StateEstimation_sfun:c41_StateEstimation.obj
 0001:0003e9d0       init_dsm_address_info      000000018003f9d0 f   StateEstimation_sfun:c41_StateEstimation.obj
 0001:0003e9e0       init_script_number_translation 000000018003f9e0 f   StateEstimation_sfun:c41_StateEstimation.obj
 0001:0003eb50       init_simulink_io_address   000000018003fb50 f   StateEstimation_sfun:c41_StateEstimation.obj
 0001:0003ebe0       initialize_c41_StateEstimation 000000018003fbe0 f   StateEstimation_sfun:c41_StateEstimation.obj
 0001:0003ec30       initialize_params_c41_StateEstimation 000000018003fc30 f   StateEstimation_sfun:c41_StateEstimation.obj
 0001:0003ec40       mdlProcessParameters_c41_StateEstimation 000000018003fc40 f   StateEstimation_sfun:c41_StateEstimation.obj
 0001:0003ecd0       mdlRTW_c41_StateEstimation 000000018003fcd0 f   StateEstimation_sfun:c41_StateEstimation.obj
 0001:0003ed10       mdlSetWorkWidths_c41_StateEstimation 000000018003fd10 f   StateEstimation_sfun:c41_StateEstimation.obj
 0001:0003f070       mdlStart_c41_StateEstimation 0000000180040070 f   StateEstimation_sfun:c41_StateEstimation.obj
 0001:0003f1e0       mdl_start_c41_StateEstimation 00000001800401e0 f   StateEstimation_sfun:c41_StateEstimation.obj
 0001:0003f1f0       set_sim_state_c41_StateEstimation 00000001800401f0 f   StateEstimation_sfun:c41_StateEstimation.obj
 0001:000403f0       sf_gateway_c41_StateEstimation 00000001800413f0 f   StateEstimation_sfun:c41_StateEstimation.obj
 0001:00040730       sf_get_instance_specialization 0000000180041730 f   StateEstimation_sfun:c41_StateEstimation.obj
 0001:00040740       sf_get_sim_state_info_c41_StateEstimation 0000000180041740 f   StateEstimation_sfun:c41_StateEstimation.obj
 0001:00040850       sf_opaque_disable_c41_StateEstimation 0000000180041850 f   StateEstimation_sfun:c41_StateEstimation.obj
 0001:00040870       sf_opaque_enable_c41_StateEstimation 0000000180041870 f   StateEstimation_sfun:c41_StateEstimation.obj
 0001:00040890       sf_opaque_gateway_c41_StateEstimation 0000000180041890 f   StateEstimation_sfun:c41_StateEstimation.obj
 0001:000408a0       sf_opaque_get_sim_state_c41_StateEstimation 00000001800418a0 f   StateEstimation_sfun:c41_StateEstimation.obj
 0001:000408c0       sf_opaque_initialize_c41_StateEstimation 00000001800418c0 f   StateEstimation_sfun:c41_StateEstimation.obj
 0001:00040910       sf_opaque_set_sim_state_c41_StateEstimation 0000000180041910 f   StateEstimation_sfun:c41_StateEstimation.obj
 0001:00040930       sf_opaque_terminate_c41_StateEstimation 0000000180041930 f   StateEstimation_sfun:c41_StateEstimation.obj
 0001:000409d0       c42_b_emlrt_marshallIn     00000001800419d0 f   StateEstimation_sfun:c42_StateEstimation.obj
 0001:00040a50       c42_b_sf_marshallIn        0000000180041a50 f   StateEstimation_sfun:c42_StateEstimation.obj
 0001:00040b70       c42_b_sf_marshallOut       0000000180041b70 f   StateEstimation_sfun:c42_StateEstimation.obj
 0001:00040c20       c42_c_emlrt_marshallIn     0000000180041c20 f   StateEstimation_sfun:c42_StateEstimation.obj
 0001:00040d00       c42_c_sf_marshallIn        0000000180041d00 f   StateEstimation_sfun:c42_StateEstimation.obj
 0001:00040dd0       c42_c_sf_marshallOut       0000000180041dd0 f   StateEstimation_sfun:c42_StateEstimation.obj
 0001:00040ea0       c42_d_emlrt_marshallIn     0000000180041ea0 f   StateEstimation_sfun:c42_StateEstimation.obj
 0001:00040f50       c42_d_sf_marshallIn        0000000180041f50 f   StateEstimation_sfun:c42_StateEstimation.obj
 0001:000410c0       c42_d_sf_marshallOut       00000001800420c0 f   StateEstimation_sfun:c42_StateEstimation.obj
 0001:00041130       c42_e_emlrt_marshallIn     0000000180042130 f   StateEstimation_sfun:c42_StateEstimation.obj
 0001:000411a0       c42_e_sf_marshallIn        00000001800421a0 f   StateEstimation_sfun:c42_StateEstimation.obj
 0001:00041310       c42_e_sf_marshallOut       0000000180042310 f   StateEstimation_sfun:c42_StateEstimation.obj
 0001:00041400       c42_emlrt_marshallIn       0000000180042400 f   StateEstimation_sfun:c42_StateEstimation.obj
 0001:000414b0       c42_f_emlrt_marshallIn     00000001800424b0 f   StateEstimation_sfun:c42_StateEstimation.obj
 0001:00041590       c42_g_emlrt_marshallIn     0000000180042590 f   StateEstimation_sfun:c42_StateEstimation.obj
 0001:00041670       c42_i_emlrt_marshallIn     0000000180042670 f   StateEstimation_sfun:c42_StateEstimation.obj
 0001:00041710       c42_j_emlrt_marshallIn     0000000180042710 f   StateEstimation_sfun:c42_StateEstimation.obj
 0001:00041770       c42_mldivide               0000000180042770 f   StateEstimation_sfun:c42_StateEstimation.obj
 0001:000418a0       c42_scaleFactor            00000001800428a0 f   StateEstimation_sfun:c42_StateEstimation.obj
 0001:00041e40       c42_sf_marshallIn          0000000180042e40 f   StateEstimation_sfun:c42_StateEstimation.obj
 0001:00041f30       c42_sf_marshallOut         0000000180042f30 f   StateEstimation_sfun:c42_StateEstimation.obj
 0001:00041fb0       c42_update_debugger_state_c42_StateEstimation 0000000180042fb0 f   StateEstimation_sfun:c42_StateEstimation.obj
 0001:00041fc0       c42_warning                0000000180042fc0 f   StateEstimation_sfun:c42_StateEstimation.obj
 0001:00042150       chart_debug_initialization 0000000180043150 f   StateEstimation_sfun:c42_StateEstimation.obj
 0001:00042940       chart_debug_initialize_data_addresses 0000000180043940 f   StateEstimation_sfun:c42_StateEstimation.obj
 0001:00042a40       disable_c42_StateEstimation 0000000180043a40 f   StateEstimation_sfun:c42_StateEstimation.obj
 0001:00042a60       enable_c42_StateEstimation 0000000180043a60 f   StateEstimation_sfun:c42_StateEstimation.obj
 0001:00042a80       finalize_c42_StateEstimation 0000000180043a80 f   StateEstimation_sfun:c42_StateEstimation.obj
 0001:00042a90       get_sim_state_c42_StateEstimation 0000000180043a90 f   StateEstimation_sfun:c42_StateEstimation.obj
 0001:00042c10       initSimStructsc42_StateEstimation 0000000180043c10 f   StateEstimation_sfun:c42_StateEstimation.obj
 0001:00042c20       init_dsm_address_info      0000000180043c20 f   StateEstimation_sfun:c42_StateEstimation.obj
 0001:00042c30       init_script_number_translation 0000000180043c30 f   StateEstimation_sfun:c42_StateEstimation.obj
 0001:00042d10       init_simulink_io_address   0000000180043d10 f   StateEstimation_sfun:c42_StateEstimation.obj
 0001:00042d60       initialize_c42_StateEstimation 0000000180043d60 f   StateEstimation_sfun:c42_StateEstimation.obj
 0001:00042db0       initialize_params_c42_StateEstimation 0000000180043db0 f   StateEstimation_sfun:c42_StateEstimation.obj
 0001:00042dc0       mdlProcessParameters_c42_StateEstimation 0000000180043dc0 f   StateEstimation_sfun:c42_StateEstimation.obj
 0001:00042e50       mdlRTW_c42_StateEstimation 0000000180043e50 f   StateEstimation_sfun:c42_StateEstimation.obj
 0001:00042e90       mdlSetWorkWidths_c42_StateEstimation 0000000180043e90 f   StateEstimation_sfun:c42_StateEstimation.obj
 0001:000431c0       mdlStart_c42_StateEstimation 00000001800441c0 f   StateEstimation_sfun:c42_StateEstimation.obj
 0001:00043360       mdl_start_c42_StateEstimation 0000000180044360 f   StateEstimation_sfun:c42_StateEstimation.obj
 0001:00043370       set_sim_state_c42_StateEstimation 0000000180044370 f   StateEstimation_sfun:c42_StateEstimation.obj
 0001:00043db0       sf_gateway_c42_StateEstimation 0000000180044db0 f   StateEstimation_sfun:c42_StateEstimation.obj
 0001:000453e0       sf_get_instance_specialization 00000001800463e0 f   StateEstimation_sfun:c42_StateEstimation.obj
 0001:000453f0       sf_get_sim_state_info_c42_StateEstimation 00000001800463f0 f   StateEstimation_sfun:c42_StateEstimation.obj
 0001:00045500       sf_opaque_disable_c42_StateEstimation 0000000180046500 f   StateEstimation_sfun:c42_StateEstimation.obj
 0001:00045520       sf_opaque_enable_c42_StateEstimation 0000000180046520 f   StateEstimation_sfun:c42_StateEstimation.obj
 0001:00045540       sf_opaque_gateway_c42_StateEstimation 0000000180046540 f   StateEstimation_sfun:c42_StateEstimation.obj
 0001:00045550       sf_opaque_get_sim_state_c42_StateEstimation 0000000180046550 f   StateEstimation_sfun:c42_StateEstimation.obj
 0001:00045570       sf_opaque_initialize_c42_StateEstimation 0000000180046570 f   StateEstimation_sfun:c42_StateEstimation.obj
 0001:00045600       sf_opaque_set_sim_state_c42_StateEstimation 0000000180046600 f   StateEstimation_sfun:c42_StateEstimation.obj
 0001:00045620       sf_opaque_terminate_c42_StateEstimation 0000000180046620 f   StateEstimation_sfun:c42_StateEstimation.obj
 0001:00045f00       c43_Rotation_to_Quaternion 0000000180046f00 f   UDP_Communication_sfun:c43_UDP_Communication.obj
 0001:000471e0       c43_abs                    00000001800481e0 f   UDP_Communication_sfun:c43_UDP_Communication.obj
 0001:00047230       c43_b_emlrt_marshallIn     0000000180048230 f   UDP_Communication_sfun:c43_UDP_Communication.obj
 0001:00047320       c43_b_sf_marshallIn        0000000180048320 f   UDP_Communication_sfun:c43_UDP_Communication.obj
 0001:000473f0       c43_b_sf_marshallOut       00000001800483f0 f   UDP_Communication_sfun:c43_UDP_Communication.obj
 0001:000474d0       c43_c_emlrt_marshallIn     00000001800484d0 f   UDP_Communication_sfun:c43_UDP_Communication.obj
 0001:00047540       c43_c_sf_marshallIn        0000000180048540 f   UDP_Communication_sfun:c43_UDP_Communication.obj
 0001:000476e0       c43_c_sf_marshallOut       00000001800486e0 f   UDP_Communication_sfun:c43_UDP_Communication.obj
 0001:000477c0       c43_check_forloop_overflow_error 00000001800487c0 f   UDP_Communication_sfun:c43_UDP_Communication.obj
 0001:000478f0       c43_d_emlrt_marshallIn     00000001800488f0 f   UDP_Communication_sfun:c43_UDP_Communication.obj
 0001:000479d0       c43_d_sf_marshallIn        00000001800489d0 f   UDP_Communication_sfun:c43_UDP_Communication.obj
 0001:00047af0       c43_d_sf_marshallOut       0000000180048af0 f   UDP_Communication_sfun:c43_UDP_Communication.obj
 0001:00047b60       c43_e_emlrt_marshallIn     0000000180048b60 f   UDP_Communication_sfun:c43_UDP_Communication.obj
 0001:00047c10       c43_e_sf_marshallIn        0000000180048c10 f   UDP_Communication_sfun:c43_UDP_Communication.obj
 0001:00047db0       c43_e_sf_marshallOut       0000000180048db0 f   UDP_Communication_sfun:c43_UDP_Communication.obj
 0001:00047e80       c43_emlrt_marshallIn       0000000180048e80 f   UDP_Communication_sfun:c43_UDP_Communication.obj
 0001:00047ee0       c43_error                  0000000180048ee0 f   UDP_Communication_sfun:c43_UDP_Communication.obj
 0001:00048000       c43_f_emlrt_marshallIn     0000000180049000 f   UDP_Communication_sfun:c43_UDP_Communication.obj
 0001:000480f0       c43_f_sf_marshallIn        00000001800490f0 f   UDP_Communication_sfun:c43_UDP_Communication.obj
 0001:00048210       c43_f_sf_marshallOut       0000000180049210 f   UDP_Communication_sfun:c43_UDP_Communication.obj
 0001:000482b0       c43_g_emlrt_marshallIn     00000001800492b0 f   UDP_Communication_sfun:c43_UDP_Communication.obj
 0001:00048360       c43_g_sf_marshallOut       0000000180049360 f   UDP_Communication_sfun:c43_UDP_Communication.obj
 0001:00048440       c43_h_sf_marshallOut       0000000180049440 f   UDP_Communication_sfun:c43_UDP_Communication.obj
 0001:000484f0       c43_i_emlrt_marshallIn     00000001800494f0 f   UDP_Communication_sfun:c43_UDP_Communication.obj
 0001:00048590       c43_j_emlrt_marshallIn     0000000180049590 f   UDP_Communication_sfun:c43_UDP_Communication.obj
 0001:000485f0       c43_sf_marshallIn          00000001800495f0 f   UDP_Communication_sfun:c43_UDP_Communication.obj
 0001:00048780       c43_sf_marshallOut         0000000180049780 f   UDP_Communication_sfun:c43_UDP_Communication.obj
 0001:00048870       c43_update_debugger_state_c43_UDP_Communication 0000000180049870 f   UDP_Communication_sfun:c43_UDP_Communication.obj
 0001:00048880       chart_debug_initialization 0000000180049880 f   UDP_Communication_sfun:c43_UDP_Communication.obj
 0001:000490e0       chart_debug_initialize_data_addresses 000000018004a0e0 f   UDP_Communication_sfun:c43_UDP_Communication.obj
 0001:000491e0       disable_c43_UDP_Communication 000000018004a1e0 f   UDP_Communication_sfun:c43_UDP_Communication.obj
 0001:00049200       enable_c43_UDP_Communication 000000018004a200 f   UDP_Communication_sfun:c43_UDP_Communication.obj
 0001:00049220       finalize_c43_UDP_Communication 000000018004a220 f   UDP_Communication_sfun:c43_UDP_Communication.obj
 0001:00049230       get_sim_state_c43_UDP_Communication 000000018004a230 f   UDP_Communication_sfun:c43_UDP_Communication.obj
 0001:00049350       initSimStructsc43_UDP_Communication 000000018004a350 f   UDP_Communication_sfun:c43_UDP_Communication.obj
 0001:00049360       init_dsm_address_info      000000018004a360 f   UDP_Communication_sfun:c43_UDP_Communication.obj
 0001:00049370       init_script_number_translation 000000018004a370 f   UDP_Communication_sfun:c43_UDP_Communication.obj
 0001:00049420       init_simulink_io_address   000000018004a420 f   UDP_Communication_sfun:c43_UDP_Communication.obj
 0001:00049470       initialize_c43_UDP_Communication 000000018004a470 f   UDP_Communication_sfun:c43_UDP_Communication.obj
 0001:000494c0       initialize_params_c43_UDP_Communication 000000018004a4c0 f   UDP_Communication_sfun:c43_UDP_Communication.obj
 0001:000494d0       mdlProcessParameters_c43_UDP_Communication 000000018004a4d0 f   UDP_Communication_sfun:c43_UDP_Communication.obj
 0001:00049560       mdlRTW_c43_UDP_Communication 000000018004a560 f   UDP_Communication_sfun:c43_UDP_Communication.obj
 0001:000495a0       mdlSetWorkWidths_c43_UDP_Communication 000000018004a5a0 f   UDP_Communication_sfun:c43_UDP_Communication.obj
 0001:000498e0       mdlStart_c43_UDP_Communication 000000018004a8e0 f   UDP_Communication_sfun:c43_UDP_Communication.obj
 0001:00049a80       mdl_start_c43_UDP_Communication 000000018004aa80 f   UDP_Communication_sfun:c43_UDP_Communication.obj
 0001:00049a90       set_sim_state_c43_UDP_Communication 000000018004aa90 f   UDP_Communication_sfun:c43_UDP_Communication.obj
 0001:0004a580       sf_gateway_c43_UDP_Communication 000000018004b580 f   UDP_Communication_sfun:c43_UDP_Communication.obj
 0001:0004b960       sf_get_instance_specialization 000000018004c960 f   UDP_Communication_sfun:c43_UDP_Communication.obj
 0001:0004b970       sf_get_sim_state_info_c43_UDP_Communication 000000018004c970 f   UDP_Communication_sfun:c43_UDP_Communication.obj
 0001:0004ba80       sf_opaque_disable_c43_UDP_Communication 000000018004ca80 f   UDP_Communication_sfun:c43_UDP_Communication.obj
 0001:0004baa0       sf_opaque_enable_c43_UDP_Communication 000000018004caa0 f   UDP_Communication_sfun:c43_UDP_Communication.obj
 0001:0004bac0       sf_opaque_gateway_c43_UDP_Communication 000000018004cac0 f   UDP_Communication_sfun:c43_UDP_Communication.obj
 0001:0004bad0       sf_opaque_get_sim_state_c43_UDP_Communication 000000018004cad0 f   UDP_Communication_sfun:c43_UDP_Communication.obj
 0001:0004baf0       sf_opaque_initialize_c43_UDP_Communication 000000018004caf0 f   UDP_Communication_sfun:c43_UDP_Communication.obj
 0001:0004bb80       sf_opaque_set_sim_state_c43_UDP_Communication 000000018004cb80 f   UDP_Communication_sfun:c43_UDP_Communication.obj
 0001:0004bba0       sf_opaque_terminate_c43_UDP_Communication 000000018004cba0 f   UDP_Communication_sfun:c43_UDP_Communication.obj
 0001:0004bfc0       $$000000                   000000018004cfc0     MSVCRT:_amdsecgs_.obj
 0001:0004c000       $$000000                   000000018004d000     MSVCRT:_chkstk_.obj
 0001:0004c064       ?dllmain_crt_dispatch@@YAHQEAUHINSTANCE__@@KQEAX@Z 000000018004d064 f   MSVCRT:dll_dllmain.obj
 0001:0004c0b4       ?dllmain_crt_process_attach@@YAHQEAUHINSTANCE__@@QEAX@Z 000000018004d0b4 f   MSVCRT:dll_dllmain.obj
 0001:0004c1e0       ?dllmain_crt_process_detach@@YAH_N@Z 000000018004d1e0 f   MSVCRT:dll_dllmain.obj
 0001:0004c264       ?dllmain_dispatch@@YAHQEAUHINSTANCE__@@KQEAX@Z 000000018004d264 f   MSVCRT:dll_dllmain.obj
 0001:0004c35c       ?dllmain_raw@@YAHQEAUHINSTANCE__@@KQEAX@Z 000000018004d35c f   MSVCRT:dll_dllmain.obj
 0001:0004c6c0       capture_current_context    000000018004d6c0 f   MSVCRT:gs_report.obj
 0001:0004c730       capture_previous_context   000000018004d730 f   MSVCRT:gs_report.obj
 0001:0004c7fc       ?find_pe_section@@YAPEAU_IMAGE_SECTION_HEADER@@QEAE_K@Z 000000018004d7fc f   MSVCRT:utility.obj
 0001:0004c848       ?is_potentially_valid_image_base@@YA_NQEAX@Z 000000018004d848 f   MSVCRT:utility.obj
 0001:0004d390       $$000000                   000000018004e390     MSVCRT:_guard_dispatch_.obj
 0001:0004d3a2       ?fin$0@?0??dllmain_crt_process_attach@@YAHQEAUHINSTANCE__@@QEAX@Z@4HA 000000018004e3a2 f   MSVCRT:dll_dllmain.obj
 0001:0004d3b9       ?fin$0@?0??dllmain_crt_process_detach@@YAH_N@Z@4HA 000000018004e3b9 f   MSVCRT:dll_dllmain.obj
 0001:0004d3d5       ?filt$0@?0??dllmain_dispatch@@YAHQEAUHINSTANCE__@@KQEAX@Z@4HA 000000018004e3d5 f   MSVCRT:dll_dllmain.obj
 0001:0004d40b       __scrt_is_nonwritable_in_current_image$filt$0 000000018004e40b f   MSVCRT:utility.obj
 0002:00005db8       GS_ExceptionPointers       0000000180054db8     MSVCRT:gs_report.obj
 0002:000060d0       $unwind$load_RightInvariant_EKF_optimization_info 00000001800550d0     RightInvariant_EKF_sfun.obj
 0002:000060e0       $unwind$unload_RightInvariant_EKF_optimization_info 00000001800550e0     RightInvariant_EKF_sfun.obj
 0002:000060e8       $unwind$sf_RightInvariant_EKF_method_dispatcher 00000001800550e8     RightInvariant_EKF_sfun.obj
 0002:000060f0       $unwind$sf_RightInvariant_EKF_process_check_sum_call 00000001800550f0     RightInvariant_EKF_sfun.obj
 0002:00006104       $chain$0$sf_RightInvariant_EKF_process_check_sum_call 0000000180055104     RightInvariant_EKF_sfun.obj
 0002:00006118       $chain$1$sf_RightInvariant_EKF_process_check_sum_call 0000000180055118     RightInvariant_EKF_sfun.obj
 0002:00006128       $unwind$sf_RightInvariant_EKF_autoinheritance_info 0000000180055128     RightInvariant_EKF_sfun.obj
 0002:00006140       $unwind$sf_RightInvariant_EKF_get_eml_resolved_functions_info 0000000180055140     RightInvariant_EKF_sfun.obj
 0002:00006154       $unwind$sf_RightInvariant_EKF_third_party_uses_info 0000000180055154     RightInvariant_EKF_sfun.obj
 0002:0000616c       $unwind$sf_RightInvariant_EKF_jit_fallback_info 000000018005516c     RightInvariant_EKF_sfun.obj
 0002:00006184       $unwind$sf_RightInvariant_EKF_updateBuildInfo_args_info 0000000180055184     RightInvariant_EKF_sfun.obj
 0002:0000619c       $unwind$RightInvariant_EKF_debug_initialize 000000018005519c     RightInvariant_EKF_sfun.obj
 0002:000061a4       $unwind$sf_c1_RightInvariant_EKF_get_eml_resolved_functions_info 00000001800551a4     c1_RightInvariant_EKF.obj
 0002:000061b4       $unwind$sf_c1_RightInvariant_EKF_get_check_sum 00000001800551b4     c1_RightInvariant_EKF.obj
 0002:000061bc       $unwind$chart_debug_initialization 00000001800551bc     c1_RightInvariant_EKF.obj
 0002:000061cc       $chain$3$chart_debug_initialization 00000001800551cc     c1_RightInvariant_EKF.obj
 0002:000061ec       $chain$4$chart_debug_initialization 00000001800551ec     c1_RightInvariant_EKF.obj
 0002:000061fc       $unwind$chart_debug_initialize_data_addresses 00000001800551fc     c1_RightInvariant_EKF.obj
 0002:00006204       $chain$0$chart_debug_initialize_data_addresses 0000000180055204     c1_RightInvariant_EKF.obj
 0002:00006218       $chain$1$chart_debug_initialize_data_addresses 0000000180055218     c1_RightInvariant_EKF.obj
 0002:00006228       $unwind$initialize_c1_RightInvariant_EKF 0000000180055228     c1_RightInvariant_EKF.obj
 0002:00006230       $unwind$enable_c1_RightInvariant_EKF 0000000180055230     c1_RightInvariant_EKF.obj
 0002:00006238       $unwind$disable_c1_RightInvariant_EKF 0000000180055238     c1_RightInvariant_EKF.obj
 0002:00006240       $unwind$get_sim_state_c1_RightInvariant_EKF 0000000180055240     c1_RightInvariant_EKF.obj
 0002:00006250       $unwind$set_sim_state_c1_RightInvariant_EKF 0000000180055250     c1_RightInvariant_EKF.obj
 0002:00006270       $unwind$sf_gateway_c1_RightInvariant_EKF 0000000180055270     c1_RightInvariant_EKF.obj
 0002:00006284       $unwind$c1_chartstep_c1_RightInvariant_EKF 0000000180055284     c1_RightInvariant_EKF.obj
 0002:000062a0       $chain$2$c1_chartstep_c1_RightInvariant_EKF 00000001800552a0     c1_RightInvariant_EKF.obj
 0002:000062bc       $chain$3$c1_chartstep_c1_RightInvariant_EKF 00000001800552bc     c1_RightInvariant_EKF.obj
 0002:000062d0       $chain$12$c1_chartstep_c1_RightInvariant_EKF 00000001800552d0     c1_RightInvariant_EKF.obj
 0002:00006304       $chain$13$c1_chartstep_c1_RightInvariant_EKF 0000000180055304     c1_RightInvariant_EKF.obj
 0002:00006334       $chain$14$c1_chartstep_c1_RightInvariant_EKF 0000000180055334     c1_RightInvariant_EKF.obj
 0002:00006344       $chain$15$c1_chartstep_c1_RightInvariant_EKF 0000000180055344     c1_RightInvariant_EKF.obj
 0002:00006358       $unwind$init_script_number_translation 0000000180055358     c1_RightInvariant_EKF.obj
 0002:00006364       $unwind$c1_sf_marshallOut  0000000180055364     c1_RightInvariant_EKF.obj
 0002:0000637c       $unwind$c1_emlrt_marshallIn 000000018005537c     c1_RightInvariant_EKF.obj
 0002:00006388       $unwind$c1_b_emlrt_marshallIn 0000000180055388     c1_RightInvariant_EKF.obj
 0002:000063a0       $unwind$c1_sf_marshallIn   00000001800553a0     c1_RightInvariant_EKF.obj
 0002:000063c0       $chain$0$c1_sf_marshallIn  00000001800553c0     c1_RightInvariant_EKF.obj
 0002:000063d4       $chain$1$c1_sf_marshallIn  00000001800553d4     c1_RightInvariant_EKF.obj
 0002:000063e4       $unwind$c1_b_sf_marshallOut 00000001800553e4     c1_RightInvariant_EKF.obj
 0002:000063ec       $unwind$c1_c_sf_marshallOut 00000001800553ec     c1_RightInvariant_EKF.obj
 0002:000063fc       $unwind$c1_d_sf_marshallOut 00000001800553fc     c1_RightInvariant_EKF.obj
 0002:0000640c       $unwind$c1_c_emlrt_marshallIn 000000018005540c     c1_RightInvariant_EKF.obj
 0002:00006418       $unwind$c1_b_sf_marshallIn 0000000180055418     c1_RightInvariant_EKF.obj
 0002:00006428       $unwind$c1_e_sf_marshallOut 0000000180055428     c1_RightInvariant_EKF.obj
 0002:00006438       $unwind$c1_d_emlrt_marshallIn 0000000180055438     c1_RightInvariant_EKF.obj
 0002:00006450       $unwind$c1_c_sf_marshallIn 0000000180055450     c1_RightInvariant_EKF.obj
 0002:0000646c       $unwind$c1_f_sf_marshallOut 000000018005546c     c1_RightInvariant_EKF.obj
 0002:0000647c       $unwind$c1_e_emlrt_marshallIn 000000018005547c     c1_RightInvariant_EKF.obj
 0002:00006494       $unwind$c1_d_sf_marshallIn 0000000180055494     c1_RightInvariant_EKF.obj
 0002:000064d0       $unwind$c1_g_sf_marshallOut 00000001800554d0     c1_RightInvariant_EKF.obj
 0002:000064d8       $unwind$c1_f_emlrt_marshallIn 00000001800554d8     c1_RightInvariant_EKF.obj
 0002:000064e0       $unwind$c1_e_sf_marshallIn 00000001800554e0     c1_RightInvariant_EKF.obj
 0002:000064ec       $unwind$c1_g_emlrt_marshallIn 00000001800554ec     c1_RightInvariant_EKF.obj
 0002:00006500       $unwind$c1_f_sf_marshallIn 0000000180055500     c1_RightInvariant_EKF.obj
 0002:0000651c       $unwind$c1_h_emlrt_marshallIn 000000018005551c     c1_RightInvariant_EKF.obj
 0002:00006530       $unwind$c1_g_sf_marshallIn 0000000180055530     c1_RightInvariant_EKF.obj
 0002:00006550       $unwind$c1_error           0000000180055550     c1_RightInvariant_EKF.obj
 0002:00006558       $unwind$c1_b_error         0000000180055558     c1_RightInvariant_EKF.obj
 0002:00006560       $unwind$c1_rand            0000000180055560     c1_RightInvariant_EKF.obj
 0002:00006574       $chain$5$c1_rand           0000000180055574     c1_RightInvariant_EKF.obj
 0002:0000659c       $chain$6$c1_rand           000000018005559c     c1_RightInvariant_EKF.obj
 0002:000065ac       $unwind$c1_c_error         00000001800555ac     c1_RightInvariant_EKF.obj
 0002:000065b4       $unwind$c1_j_emlrt_marshallIn 00000001800555b4     c1_RightInvariant_EKF.obj
 0002:000065c0       $unwind$c1_k_emlrt_marshallIn 00000001800555c0     c1_RightInvariant_EKF.obj
 0002:000065cc       $unwind$c1_l_emlrt_marshallIn 00000001800555cc     c1_RightInvariant_EKF.obj
 0002:000065d8       $unwind$c1_m_emlrt_marshallIn 00000001800555d8     c1_RightInvariant_EKF.obj
 0002:000065f0       $unwind$c1_n_emlrt_marshallIn 00000001800555f0     c1_RightInvariant_EKF.obj
 0002:000065f8       $unwind$c1_o_emlrt_marshallIn 00000001800555f8     c1_RightInvariant_EKF.obj
 0002:00006604       $unwind$c1_p_emlrt_marshallIn 0000000180055604     c1_RightInvariant_EKF.obj
 0002:0000660c       $unwind$c1_q_emlrt_marshallIn 000000018005560c     c1_RightInvariant_EKF.obj
 0002:00006614       $unwind$c1_b_eml_rand_mt19937ar 0000000180055614     c1_RightInvariant_EKF.obj
 0002:00006640       $unwind$init_simulink_io_address 0000000180055640     c1_RightInvariant_EKF.obj
 0002:00006648       $unwind$sf_c1_RightInvariant_EKF_get_post_codegen_info 0000000180055648     c1_RightInvariant_EKF.obj
 0002:0000665c       $unwind$sf_c1_RightInvariant_EKF_get_autoinheritance_info 000000018005565c     c1_RightInvariant_EKF.obj
 0002:00006688       $unwind$sf_c1_RightInvariant_EKF_jit_fallback_info 0000000180055688     c1_RightInvariant_EKF.obj
 0002:000066a8       $unwind$sf_get_sim_state_info_c1_RightInvariant_EKF 00000001800556a8     c1_RightInvariant_EKF.obj
 0002:000066b8       $unwind$sf_opaque_initialize_c1_RightInvariant_EKF 00000001800556b8     c1_RightInvariant_EKF.obj
 0002:000066c4       $unwind$sf_opaque_enable_c1_RightInvariant_EKF 00000001800556c4     c1_RightInvariant_EKF.obj
 0002:000066cc       $unwind$sf_opaque_disable_c1_RightInvariant_EKF 00000001800556cc     c1_RightInvariant_EKF.obj
 0002:000066d4       $unwind$sf_opaque_get_sim_state_c1_RightInvariant_EKF 00000001800556d4     c1_RightInvariant_EKF.obj
 0002:000066dc       $unwind$sf_opaque_set_sim_state_c1_RightInvariant_EKF 00000001800556dc     c1_RightInvariant_EKF.obj
 0002:000066e4       $unwind$sf_opaque_terminate_c1_RightInvariant_EKF 00000001800556e4     c1_RightInvariant_EKF.obj
 0002:000066ec       $chain$0$sf_opaque_terminate_c1_RightInvariant_EKF 00000001800556ec     c1_RightInvariant_EKF.obj
 0002:00006700       $chain$1$sf_opaque_terminate_c1_RightInvariant_EKF 0000000180055700     c1_RightInvariant_EKF.obj
 0002:00006710       $unwind$mdlProcessParameters_c1_RightInvariant_EKF 0000000180055710     c1_RightInvariant_EKF.obj
 0002:00006718       $chain$0$mdlProcessParameters_c1_RightInvariant_EKF 0000000180055718     c1_RightInvariant_EKF.obj
 0002:0000672c       $chain$1$mdlProcessParameters_c1_RightInvariant_EKF 000000018005572c     c1_RightInvariant_EKF.obj
 0002:00006740       $chain$2$mdlProcessParameters_c1_RightInvariant_EKF 0000000180055740     c1_RightInvariant_EKF.obj
 0002:00006750       $chain$3$mdlProcessParameters_c1_RightInvariant_EKF 0000000180055750     c1_RightInvariant_EKF.obj
 0002:00006760       $unwind$mdlSetWorkWidths_c1_RightInvariant_EKF 0000000180055760     c1_RightInvariant_EKF.obj
 0002:00006768       $chain$2$mdlSetWorkWidths_c1_RightInvariant_EKF 0000000180055768     c1_RightInvariant_EKF.obj
 0002:00006784       $chain$3$mdlSetWorkWidths_c1_RightInvariant_EKF 0000000180055784     c1_RightInvariant_EKF.obj
 0002:0000679c       $chain$4$mdlSetWorkWidths_c1_RightInvariant_EKF 000000018005579c     c1_RightInvariant_EKF.obj
 0002:000067ac       $unwind$mdlRTW_c1_RightInvariant_EKF 00000001800557ac     c1_RightInvariant_EKF.obj
 0002:000067b4       $unwind$mdlStart_c1_RightInvariant_EKF 00000001800557b4     c1_RightInvariant_EKF.obj
 0002:000067c0       $unwind$sf_c2_RightInvariant_EKF_get_eml_resolved_functions_info 00000001800557c0     c2_RightInvariant_EKF.obj
 0002:000067d0       $unwind$sf_c2_RightInvariant_EKF_get_check_sum 00000001800557d0     c2_RightInvariant_EKF.obj
 0002:000067d8       $unwind$chart_debug_initialization 00000001800557d8     c2_RightInvariant_EKF.obj
 0002:000067e8       $chain$3$chart_debug_initialization 00000001800557e8     c2_RightInvariant_EKF.obj
 0002:00006808       $chain$4$chart_debug_initialization 0000000180055808     c2_RightInvariant_EKF.obj
 0002:00006818       $unwind$chart_debug_initialize_data_addresses 0000000180055818     c2_RightInvariant_EKF.obj
 0002:00006820       $chain$0$chart_debug_initialize_data_addresses 0000000180055820     c2_RightInvariant_EKF.obj
 0002:00006834       $chain$1$chart_debug_initialize_data_addresses 0000000180055834     c2_RightInvariant_EKF.obj
 0002:00006844       $unwind$initialize_c2_RightInvariant_EKF 0000000180055844     c2_RightInvariant_EKF.obj
 0002:0000684c       $unwind$enable_c2_RightInvariant_EKF 000000018005584c     c2_RightInvariant_EKF.obj
 0002:00006854       $unwind$disable_c2_RightInvariant_EKF 0000000180055854     c2_RightInvariant_EKF.obj
 0002:0000685c       $unwind$get_sim_state_c2_RightInvariant_EKF 000000018005585c     c2_RightInvariant_EKF.obj
 0002:00006868       $unwind$set_sim_state_c2_RightInvariant_EKF 0000000180055868     c2_RightInvariant_EKF.obj
 0002:00006888       $unwind$sf_gateway_c2_RightInvariant_EKF 0000000180055888     c2_RightInvariant_EKF.obj
 0002:000068d8       $unwind$init_script_number_translation 00000001800558d8     c2_RightInvariant_EKF.obj
 0002:000068e4       $unwind$c2_sf_marshallOut  00000001800558e4     c2_RightInvariant_EKF.obj
 0002:000068f4       $unwind$c2_emlrt_marshallIn 00000001800558f4     c2_RightInvariant_EKF.obj
 0002:00006900       $unwind$c2_b_emlrt_marshallIn 0000000180055900     c2_RightInvariant_EKF.obj
 0002:00006918       $unwind$c2_sf_marshallIn   0000000180055918     c2_RightInvariant_EKF.obj
 0002:00006930       $unwind$c2_b_sf_marshallOut 0000000180055930     c2_RightInvariant_EKF.obj
 0002:00006938       $unwind$c2_c_sf_marshallOut 0000000180055938     c2_RightInvariant_EKF.obj
 0002:00006948       $unwind$c2_d_sf_marshallOut 0000000180055948     c2_RightInvariant_EKF.obj
 0002:00006958       $unwind$c2_e_sf_marshallOut 0000000180055958     c2_RightInvariant_EKF.obj
 0002:00006968       $unwind$c2_f_sf_marshallOut 0000000180055968     c2_RightInvariant_EKF.obj
 0002:00006970       $unwind$c2_c_emlrt_marshallIn 0000000180055970     c2_RightInvariant_EKF.obj
 0002:0000697c       $unwind$c2_b_sf_marshallIn 000000018005597c     c2_RightInvariant_EKF.obj
 0002:0000698c       $unwind$c2_d_emlrt_marshallIn 000000018005598c     c2_RightInvariant_EKF.obj
 0002:000069a0       $unwind$c2_c_sf_marshallIn 00000001800559a0     c2_RightInvariant_EKF.obj
 0002:000069bc       $unwind$c2_g_sf_marshallOut 00000001800559bc     c2_RightInvariant_EKF.obj
 0002:000069cc       $unwind$c2_e_emlrt_marshallIn 00000001800559cc     c2_RightInvariant_EKF.obj
 0002:000069e4       $unwind$c2_d_sf_marshallIn 00000001800559e4     c2_RightInvariant_EKF.obj
 0002:00006a20       $unwind$c2_f_emlrt_marshallIn 0000000180055a20     c2_RightInvariant_EKF.obj
 0002:00006a34       $unwind$c2_e_sf_marshallIn 0000000180055a34     c2_RightInvariant_EKF.obj
 0002:00006a54       $unwind$c2_g_emlrt_marshallIn 0000000180055a54     c2_RightInvariant_EKF.obj
 0002:00006a6c       $unwind$c2_f_sf_marshallIn 0000000180055a6c     c2_RightInvariant_EKF.obj
 0002:00006a84       $unwind$c2_error           0000000180055a84     c2_RightInvariant_EKF.obj
 0002:00006a8c       $unwind$c2_i_emlrt_marshallIn 0000000180055a8c     c2_RightInvariant_EKF.obj
 0002:00006a94       $unwind$c2_j_emlrt_marshallIn 0000000180055a94     c2_RightInvariant_EKF.obj
 0002:00006a9c       $unwind$init_simulink_io_address 0000000180055a9c     c2_RightInvariant_EKF.obj
 0002:00006aa4       $unwind$sf_c2_RightInvariant_EKF_get_post_codegen_info 0000000180055aa4     c2_RightInvariant_EKF.obj
 0002:00006ab8       $unwind$sf_c2_RightInvariant_EKF_get_autoinheritance_info 0000000180055ab8     c2_RightInvariant_EKF.obj
 0002:00006ae4       $unwind$sf_c2_RightInvariant_EKF_jit_fallback_info 0000000180055ae4     c2_RightInvariant_EKF.obj
 0002:00006b04       $unwind$sf_get_sim_state_info_c2_RightInvariant_EKF 0000000180055b04     c2_RightInvariant_EKF.obj
 0002:00006b14       $unwind$sf_opaque_initialize_c2_RightInvariant_EKF 0000000180055b14     c2_RightInvariant_EKF.obj
 0002:00006b1c       $unwind$sf_opaque_enable_c2_RightInvariant_EKF 0000000180055b1c     c2_RightInvariant_EKF.obj
 0002:00006b24       $unwind$sf_opaque_disable_c2_RightInvariant_EKF 0000000180055b24     c2_RightInvariant_EKF.obj
 0002:00006b2c       $unwind$sf_opaque_get_sim_state_c2_RightInvariant_EKF 0000000180055b2c     c2_RightInvariant_EKF.obj
 0002:00006b34       $unwind$sf_opaque_set_sim_state_c2_RightInvariant_EKF 0000000180055b34     c2_RightInvariant_EKF.obj
 0002:00006b3c       $unwind$sf_opaque_terminate_c2_RightInvariant_EKF 0000000180055b3c     c2_RightInvariant_EKF.obj
 0002:00006b44       $chain$0$sf_opaque_terminate_c2_RightInvariant_EKF 0000000180055b44     c2_RightInvariant_EKF.obj
 0002:00006b58       $chain$1$sf_opaque_terminate_c2_RightInvariant_EKF 0000000180055b58     c2_RightInvariant_EKF.obj
 0002:00006b68       $unwind$mdlProcessParameters_c2_RightInvariant_EKF 0000000180055b68     c2_RightInvariant_EKF.obj
 0002:00006b70       $chain$0$mdlProcessParameters_c2_RightInvariant_EKF 0000000180055b70     c2_RightInvariant_EKF.obj
 0002:00006b84       $chain$1$mdlProcessParameters_c2_RightInvariant_EKF 0000000180055b84     c2_RightInvariant_EKF.obj
 0002:00006b98       $chain$2$mdlProcessParameters_c2_RightInvariant_EKF 0000000180055b98     c2_RightInvariant_EKF.obj
 0002:00006ba8       $chain$3$mdlProcessParameters_c2_RightInvariant_EKF 0000000180055ba8     c2_RightInvariant_EKF.obj
 0002:00006bb8       $unwind$mdlSetWorkWidths_c2_RightInvariant_EKF 0000000180055bb8     c2_RightInvariant_EKF.obj
 0002:00006bc0       $chain$2$mdlSetWorkWidths_c2_RightInvariant_EKF 0000000180055bc0     c2_RightInvariant_EKF.obj
 0002:00006bdc       $chain$3$mdlSetWorkWidths_c2_RightInvariant_EKF 0000000180055bdc     c2_RightInvariant_EKF.obj
 0002:00006bf4       $chain$4$mdlSetWorkWidths_c2_RightInvariant_EKF 0000000180055bf4     c2_RightInvariant_EKF.obj
 0002:00006c04       $unwind$mdlRTW_c2_RightInvariant_EKF 0000000180055c04     c2_RightInvariant_EKF.obj
 0002:00006c0c       $unwind$mdlStart_c2_RightInvariant_EKF 0000000180055c0c     c2_RightInvariant_EKF.obj
 0002:00006c18       $unwind$sf_c40_RightInvariant_EKF_get_eml_resolved_functions_info 0000000180055c18     c40_RightInvariant_EKF.obj
 0002:00006c28       $unwind$sf_c40_RightInvariant_EKF_get_check_sum 0000000180055c28     c40_RightInvariant_EKF.obj
 0002:00006c30       $unwind$chart_debug_initialization 0000000180055c30     c40_RightInvariant_EKF.obj
 0002:00006c3c       $chain$6$chart_debug_initialization 0000000180055c3c     c40_RightInvariant_EKF.obj
 0002:00006c68       $chain$7$chart_debug_initialization 0000000180055c68     c40_RightInvariant_EKF.obj
 0002:00006c78       $unwind$chart_debug_initialize_data_addresses 0000000180055c78     c40_RightInvariant_EKF.obj
 0002:00006c80       $chain$0$chart_debug_initialize_data_addresses 0000000180055c80     c40_RightInvariant_EKF.obj
 0002:00006c94       $chain$1$chart_debug_initialize_data_addresses 0000000180055c94     c40_RightInvariant_EKF.obj
 0002:00006ca4       $unwind$initialize_c40_RightInvariant_EKF 0000000180055ca4     c40_RightInvariant_EKF.obj
 0002:00006cac       $unwind$enable_c40_RightInvariant_EKF 0000000180055cac     c40_RightInvariant_EKF.obj
 0002:00006cb4       $unwind$disable_c40_RightInvariant_EKF 0000000180055cb4     c40_RightInvariant_EKF.obj
 0002:00006cbc       $unwind$get_sim_state_c40_RightInvariant_EKF 0000000180055cbc     c40_RightInvariant_EKF.obj
 0002:00006cc8       $unwind$set_sim_state_c40_RightInvariant_EKF 0000000180055cc8     c40_RightInvariant_EKF.obj
 0002:00006cf0       $unwind$sf_gateway_c40_RightInvariant_EKF 0000000180055cf0     c40_RightInvariant_EKF.obj
 0002:00006d00       $unwind$c40_chartstep_c40_RightInvariant_EKF 0000000180055d00     c40_RightInvariant_EKF.obj
 0002:00006d28       $chain$1$c40_chartstep_c40_RightInvariant_EKF 0000000180055d28     c40_RightInvariant_EKF.obj
 0002:00006d40       $chain$2$c40_chartstep_c40_RightInvariant_EKF 0000000180055d40     c40_RightInvariant_EKF.obj
 0002:00006d54       $chain$4$c40_chartstep_c40_RightInvariant_EKF 0000000180055d54     c40_RightInvariant_EKF.obj
 0002:00006d6c       $chain$9$c40_chartstep_c40_RightInvariant_EKF 0000000180055d6c     c40_RightInvariant_EKF.obj
 0002:00006d90       $chain$10$c40_chartstep_c40_RightInvariant_EKF 0000000180055d90     c40_RightInvariant_EKF.obj
 0002:00006da0       $unwind$init_script_number_translation 0000000180055da0     c40_RightInvariant_EKF.obj
 0002:00006dac       $unwind$c40_sf_marshallOut 0000000180055dac     c40_RightInvariant_EKF.obj
 0002:00006db4       $unwind$c40_emlrt_marshallIn 0000000180055db4     c40_RightInvariant_EKF.obj
 0002:00006dc0       $unwind$c40_b_emlrt_marshallIn 0000000180055dc0     c40_RightInvariant_EKF.obj
 0002:00006dcc       $unwind$c40_sf_marshallIn  0000000180055dcc     c40_RightInvariant_EKF.obj
 0002:00006ddc       $unwind$c40_b_sf_marshallOut 0000000180055ddc     c40_RightInvariant_EKF.obj
 0002:00006dec       $unwind$c40_c_emlrt_marshallIn 0000000180055dec     c40_RightInvariant_EKF.obj
 0002:00006e04       $unwind$c40_d_emlrt_marshallIn 0000000180055e04     c40_RightInvariant_EKF.obj
 0002:00006e18       $unwind$c40_b_sf_marshallIn 0000000180055e18     c40_RightInvariant_EKF.obj
 0002:00006e34       $unwind$c40_c_sf_marshallOut 0000000180055e34     c40_RightInvariant_EKF.obj
 0002:00006e44       $unwind$c40_e_emlrt_marshallIn 0000000180055e44     c40_RightInvariant_EKF.obj
 0002:00006e50       $unwind$c40_f_emlrt_marshallIn 0000000180055e50     c40_RightInvariant_EKF.obj
 0002:00006e68       $unwind$c40_c_sf_marshallIn 0000000180055e68     c40_RightInvariant_EKF.obj
 0002:00006e80       $unwind$c40_d_sf_marshallOut 0000000180055e80     c40_RightInvariant_EKF.obj
 0002:00006e90       $unwind$c40_e_sf_marshallOut 0000000180055e90     c40_RightInvariant_EKF.obj
 0002:00006e98       $unwind$c40_f_sf_marshallOut 0000000180055e98     c40_RightInvariant_EKF.obj
 0002:00006ea8       $unwind$c40_g_emlrt_marshallIn 0000000180055ea8     c40_RightInvariant_EKF.obj
 0002:00006ec0       $unwind$c40_d_sf_marshallIn 0000000180055ec0     c40_RightInvariant_EKF.obj
 0002:00006efc       $unwind$c40_g_sf_marshallOut 0000000180055efc     c40_RightInvariant_EKF.obj
 0002:00006f24       $unwind$c40_h_emlrt_marshallIn 0000000180055f24     c40_RightInvariant_EKF.obj
 0002:00006f3c       $unwind$c40_e_sf_marshallIn 0000000180055f3c     c40_RightInvariant_EKF.obj
 0002:00006f60       $unwind$c40_h_sf_marshallOut 0000000180055f60     c40_RightInvariant_EKF.obj
 0002:00006f70       $unwind$c40_i_emlrt_marshallIn 0000000180055f70     c40_RightInvariant_EKF.obj
 0002:00006f88       $unwind$c40_f_sf_marshallIn 0000000180055f88     c40_RightInvariant_EKF.obj
 0002:00006fa0       $unwind$c40_i_sf_marshallOut 0000000180055fa0     c40_RightInvariant_EKF.obj
 0002:00006fa8       $unwind$c40_error          0000000180055fa8     c40_RightInvariant_EKF.obj
 0002:00006fb0       $unwind$c40_k_emlrt_marshallIn 0000000180055fb0     c40_RightInvariant_EKF.obj
 0002:00006fb8       $unwind$c40_l_emlrt_marshallIn 0000000180055fb8     c40_RightInvariant_EKF.obj
 0002:00006fc0       $unwind$init_simulink_io_address 0000000180055fc0     c40_RightInvariant_EKF.obj
 0002:00006fc8       $unwind$sf_c40_RightInvariant_EKF_get_post_codegen_info 0000000180055fc8     c40_RightInvariant_EKF.obj
 0002:00006fdc       $unwind$sf_c40_RightInvariant_EKF_get_autoinheritance_info 0000000180055fdc     c40_RightInvariant_EKF.obj
 0002:00007008       $unwind$sf_c40_RightInvariant_EKF_jit_fallback_info 0000000180056008     c40_RightInvariant_EKF.obj
 0002:00007028       $unwind$sf_get_sim_state_info_c40_RightInvariant_EKF 0000000180056028     c40_RightInvariant_EKF.obj
 0002:00007038       $unwind$sf_opaque_initialize_c40_RightInvariant_EKF 0000000180056038     c40_RightInvariant_EKF.obj
 0002:00007040       $unwind$sf_opaque_enable_c40_RightInvariant_EKF 0000000180056040     c40_RightInvariant_EKF.obj
 0002:00007048       $unwind$sf_opaque_disable_c40_RightInvariant_EKF 0000000180056048     c40_RightInvariant_EKF.obj
 0002:00007050       $unwind$sf_opaque_get_sim_state_c40_RightInvariant_EKF 0000000180056050     c40_RightInvariant_EKF.obj
 0002:00007058       $unwind$sf_opaque_set_sim_state_c40_RightInvariant_EKF 0000000180056058     c40_RightInvariant_EKF.obj
 0002:00007060       $unwind$sf_opaque_terminate_c40_RightInvariant_EKF 0000000180056060     c40_RightInvariant_EKF.obj
 0002:00007068       $chain$0$sf_opaque_terminate_c40_RightInvariant_EKF 0000000180056068     c40_RightInvariant_EKF.obj
 0002:0000707c       $chain$1$sf_opaque_terminate_c40_RightInvariant_EKF 000000018005607c     c40_RightInvariant_EKF.obj
 0002:0000708c       $unwind$mdlProcessParameters_c40_RightInvariant_EKF 000000018005608c     c40_RightInvariant_EKF.obj
 0002:00007094       $chain$0$mdlProcessParameters_c40_RightInvariant_EKF 0000000180056094     c40_RightInvariant_EKF.obj
 0002:000070a8       $chain$1$mdlProcessParameters_c40_RightInvariant_EKF 00000001800560a8     c40_RightInvariant_EKF.obj
 0002:000070bc       $chain$2$mdlProcessParameters_c40_RightInvariant_EKF 00000001800560bc     c40_RightInvariant_EKF.obj
 0002:000070cc       $chain$3$mdlProcessParameters_c40_RightInvariant_EKF 00000001800560cc     c40_RightInvariant_EKF.obj
 0002:000070dc       $unwind$mdlSetWorkWidths_c40_RightInvariant_EKF 00000001800560dc     c40_RightInvariant_EKF.obj
 0002:000070e4       $chain$2$mdlSetWorkWidths_c40_RightInvariant_EKF 00000001800560e4     c40_RightInvariant_EKF.obj
 0002:00007100       $chain$3$mdlSetWorkWidths_c40_RightInvariant_EKF 0000000180056100     c40_RightInvariant_EKF.obj
 0002:00007118       $chain$4$mdlSetWorkWidths_c40_RightInvariant_EKF 0000000180056118     c40_RightInvariant_EKF.obj
 0002:00007128       $unwind$mdlRTW_c40_RightInvariant_EKF 0000000180056128     c40_RightInvariant_EKF.obj
 0002:00007130       $unwind$mdlStart_c40_RightInvariant_EKF 0000000180056130     c40_RightInvariant_EKF.obj
 0002:0000713c       $unwind$mexFunction        000000018005613c     RightInvariant_EKF_sfun_registry.obj
 0002:00007150       $unwind$_vsnprintf_l       0000000180056150     RightInvariant_EKF_sfun_registry.obj
 0002:00007164       $unwind$_vsprintf_l        0000000180056164     RightInvariant_EKF_sfun_registry.obj
 0002:00007178       $unwind$sprintf            0000000180056178     RightInvariant_EKF_sfun_registry.obj
 0002:00007184       $unwind$_ssSetInputPortDirectFeedThroughFcn 0000000180056184     RightInvariant_EKF_sfun_registry.obj
 0002:00007198       $unwind$_ssGetInputPortSignalPtrsFcn 0000000180056198     RightInvariant_EKF_sfun_registry.obj
 0002:000071a8       $chain$0$_ssGetInputPortSignalPtrsFcn 00000001800561a8     RightInvariant_EKF_sfun_registry.obj
 0002:000071bc       $chain$2$_ssGetInputPortSignalPtrsFcn 00000001800561bc     RightInvariant_EKF_sfun_registry.obj
 0002:000071d0       $chain$3$_ssGetInputPortSignalPtrsFcn 00000001800561d0     RightInvariant_EKF_sfun_registry.obj
 0002:000071e0       $unwind$_ssGetInputPortSignalFcn 00000001800561e0     RightInvariant_EKF_sfun_registry.obj
 0002:000071f0       $chain$0$_ssGetInputPortSignalFcn 00000001800561f0     RightInvariant_EKF_sfun_registry.obj
 0002:00007204       $chain$2$_ssGetInputPortSignalFcn 0000000180056204     RightInvariant_EKF_sfun_registry.obj
 0002:00007218       $chain$3$_ssGetInputPortSignalFcn 0000000180056218     RightInvariant_EKF_sfun_registry.obj
 0002:00007228       $unwind$_ssSetInputPortReusableFcn 0000000180056228     RightInvariant_EKF_sfun_registry.obj
 0002:00007244       $unwind$_ssSetOutputPortReusableFcn 0000000180056244     RightInvariant_EKF_sfun_registry.obj
 0002:00007260       $unwind$_ssRegisterSymbolicDimsExpr 0000000180056260     RightInvariant_EKF_sfun_registry.obj
 0002:00007268       $unwind$_ssRegisterSymbolicDims 0000000180056268     RightInvariant_EKF_sfun_registry.obj
 0002:00007270       $unwind$_ssRegisterSymbolicDimsString 0000000180056270     RightInvariant_EKF_sfun_registry.obj
 0002:00007278       $unwind$_ssRegisterSymbolicDimsIntValue 0000000180056278     RightInvariant_EKF_sfun_registry.obj
 0002:00007280       $unwind$_ssRegisterSymbolicDimsPlus 0000000180056280     RightInvariant_EKF_sfun_registry.obj
 0002:00007288       $unwind$_ssRegisterSymbolicDimsMinus 0000000180056288     RightInvariant_EKF_sfun_registry.obj
 0002:00007290       $unwind$_ssRegisterSymbolicDimsMultiply 0000000180056290     RightInvariant_EKF_sfun_registry.obj
 0002:00007298       $unwind$_ssRegisterSymbolicDimsDivide 0000000180056298     RightInvariant_EKF_sfun_registry.obj
 0002:000072a0       $unwind$_ssGetNumSymbolicDims 00000001800562a0     RightInvariant_EKF_sfun_registry.obj
 0002:000072a8       $unwind$_ssGetSymbolicDim  00000001800562a8     RightInvariant_EKF_sfun_registry.obj
 0002:000072b0       $unwind$_ssSetInputPortSymbolicDimsId 00000001800562b0     RightInvariant_EKF_sfun_registry.obj
 0002:000072b8       $unwind$_ssGetCompInputPortSymbolicDimsId 00000001800562b8     RightInvariant_EKF_sfun_registry.obj
 0002:000072c0       $unwind$_ssSetCompInputPortSymbolicDimsId 00000001800562c0     RightInvariant_EKF_sfun_registry.obj
 0002:000072c8       $unwind$_ssSetOutputPortSymbolicDimsId 00000001800562c8     RightInvariant_EKF_sfun_registry.obj
 0002:000072d0       $unwind$_ssGetCompOutputPortSymbolicDimsId 00000001800562d0     RightInvariant_EKF_sfun_registry.obj
 0002:000072d8       $unwind$_ssSetCompOutputPortSymbolicDimsId 00000001800562d8     RightInvariant_EKF_sfun_registry.obj
 0002:000072e0       $unwind$_ssSetCompDWorkSymbolicDimsId 00000001800562e0     RightInvariant_EKF_sfun_registry.obj
 0002:000072e8       $unwind$ssGetIsZeroCrossControlDisabled 00000001800562e8     RightInvariant_EKF_sfun_registry.obj
 0002:000072f0       $unwind$ssSetIsInputPortUsedForContZcSignal 00000001800562f0     RightInvariant_EKF_sfun_registry.obj
 0002:000072f8       $unwind$ssSetZcSignalIsZcElementDisc 00000001800562f8     RightInvariant_EKF_sfun_registry.obj
 0002:00007308       $unwind$ssSetZcSignalWidth 0000000180056308     RightInvariant_EKF_sfun_registry.obj
 0002:00007310       $unwind$ssSetZcSignalZcEventType 0000000180056310     RightInvariant_EKF_sfun_registry.obj
 0002:00007318       $unwind$ssSetZcSignalType  0000000180056318     RightInvariant_EKF_sfun_registry.obj
 0002:00007320       $unwind$ssSetZcSignalZcTol 0000000180056320     RightInvariant_EKF_sfun_registry.obj
 0002:00007328       $unwind$ssSetZcSignalNeedsEventNotification 0000000180056328     RightInvariant_EKF_sfun_registry.obj
 0002:00007330       $unwind$ssCreateAndAddZcSignalInfo 0000000180056330     RightInvariant_EKF_sfun_registry.obj
 0002:00007338       $unwind$ssCloneAndAddZcSignalInfo 0000000180056338     RightInvariant_EKF_sfun_registry.obj
 0002:00007340       $unwind$ssGetNumZcSignals  0000000180056340     RightInvariant_EKF_sfun_registry.obj
 0002:00007348       $unwind$ssGetZcSignalVector 0000000180056348     RightInvariant_EKF_sfun_registry.obj
 0002:00007350       $unwind$ssGetZcSignalName  0000000180056350     RightInvariant_EKF_sfun_registry.obj
 0002:00007358       $unwind$ssGetZcSignalWidth 0000000180056358     RightInvariant_EKF_sfun_registry.obj
 0002:00007360       $unwind$ssGetZcSignalZcEventType 0000000180056360     RightInvariant_EKF_sfun_registry.obj
 0002:00007368       $unwind$ssGetZcSignalZcEvents 0000000180056368     RightInvariant_EKF_sfun_registry.obj
 0002:00007370       $unwind$ssGetZcSignalType  0000000180056370     RightInvariant_EKF_sfun_registry.obj
 0002:00007378       $unwind$ssGetZcSignalZcTol 0000000180056378     RightInvariant_EKF_sfun_registry.obj
 0002:00007380       $unwind$ssGetZcSignalNeedsEventNotification 0000000180056380     RightInvariant_EKF_sfun_registry.obj
 0002:00007388       $unwind$ssGetZcSignalIsZcElementDisc 0000000180056388     RightInvariant_EKF_sfun_registry.obj
 0002:00007398       $unwind$ssGetIsInputPortElementContinuous 0000000180056398     RightInvariant_EKF_sfun_registry.obj
 0002:000073a8       $unwind$ssGetDTypeIdFromMxArray 00000001800563a8     RightInvariant_EKF_sfun_registry.obj
 0002:000073b0       $unwind$ssWriteRTWNameValuePair 00000001800563b0     RightInvariant_EKF_sfun_registry.obj
 0002:000073c0       $chain$0$ssWriteRTWNameValuePair 00000001800563c0     RightInvariant_EKF_sfun_registry.obj
 0002:000073d4       $chain$1$ssWriteRTWNameValuePair 00000001800563d4     RightInvariant_EKF_sfun_registry.obj
 0002:000073e4       $unwind$ssWriteRTWParamSettings 00000001800563e4     RightInvariant_EKF_sfun_registry.obj
 0002:000073f0       $chain$1$ssWriteRTWParamSettings 00000001800563f0     RightInvariant_EKF_sfun_registry.obj
 0002:00007408       $chain$2$ssWriteRTWParamSettings 0000000180056408     RightInvariant_EKF_sfun_registry.obj
 0002:00007418       $chain$3$ssWriteRTWParamSettings 0000000180056418     RightInvariant_EKF_sfun_registry.obj
 0002:00007430       $unwind$ssWriteRTWParameters 0000000180056430     RightInvariant_EKF_sfun_registry.obj
 0002:0000743c       $chain$1$ssWriteRTWParameters 000000018005643c     RightInvariant_EKF_sfun_registry.obj
 0002:00007454       $chain$2$ssWriteRTWParameters 0000000180056454     RightInvariant_EKF_sfun_registry.obj
 0002:00007464       $chain$3$ssWriteRTWParameters 0000000180056464     RightInvariant_EKF_sfun_registry.obj
 0002:0000747c       $chain$4$ssWriteRTWParameters 000000018005647c     RightInvariant_EKF_sfun_registry.obj
 0002:0000748c       $unwind$ssWriteRTWWorkVect 000000018005648c     RightInvariant_EKF_sfun_registry.obj
 0002:000074b0       $unwind$ssWriteRTWMxVectParam 00000001800564b0     RightInvariant_EKF_sfun_registry.obj
 0002:000074b8       $unwind$ssWriteRTWMx2dMatParam 00000001800564b8     RightInvariant_EKF_sfun_registry.obj
 0002:000074c0       $unwind$_ssSetInputPortMatrixDimensions 00000001800564c0     RightInvariant_EKF_sfun_registry.obj
 0002:000074c8       $unwind$_ssSetOutputPortMatrixDimensions 00000001800564c8     RightInvariant_EKF_sfun_registry.obj
 0002:000074d0       $unwind$_ssSetInputPortVectorDimension 00000001800564d0     RightInvariant_EKF_sfun_registry.obj
 0002:000074d8       $unwind$_ssSetOutputPortVectorDimension 00000001800564d8     RightInvariant_EKF_sfun_registry.obj
 0002:000074e0       $unwind$ssIsRunTimeParamTunable 00000001800564e0     RightInvariant_EKF_sfun_registry.obj
 0002:000074e8       $unwind$ssGetSFuncBlockHandle 00000001800564e8     RightInvariant_EKF_sfun_registry.obj
 0002:000074f0       $unwind$_ssGetCallSystemNumFcnCallDestinations 00000001800564f0     RightInvariant_EKF_sfun_registry.obj
 0002:000074f8       $unwind$ssGetParameterTuningCompliance 00000001800564f8     RightInvariant_EKF_sfun_registry.obj
 0002:00007500       $unwind$ssWarning          0000000180056500     RightInvariant_EKF_sfun_registry.obj
 0002:00007518       $unwind$_ssGetAbsTol       0000000180056518     RightInvariant_EKF_sfun_registry.obj
 0002:00007520       $unwind$sf_process_check_sum_call 0000000180056520     RightInvariant_EKF_sfun_registry.obj
 0002:00007534       $unwind$sf_process_autoinheritance_call 0000000180056534     RightInvariant_EKF_sfun_registry.obj
 0002:0000754c       $unwind$sf_process_get_third_party_uses_info_call 000000018005654c     RightInvariant_EKF_sfun_registry.obj
 0002:00007564       $unwind$sf_process_get_jit_fallback_info_call 0000000180056564     RightInvariant_EKF_sfun_registry.obj
 0002:0000757c       $unwind$sf_process_get_updateBuildInfo_args_info_call 000000018005657c     RightInvariant_EKF_sfun_registry.obj
 0002:00007594       $unwind$sf_process_get_eml_resolved_functions_info_call 0000000180056594     RightInvariant_EKF_sfun_registry.obj
 0002:000075ac       $unwind$sf_mex_unlock_call 00000001800565ac     RightInvariant_EKF_sfun_registry.obj
 0002:000075bc       $unwind$sf_debug_api_wrapper 00000001800565bc     RightInvariant_EKF_sfun_registry.obj
 0002:000075c4       $unwind$ProcessMexSfunctionCmdLineCall 00000001800565c4     RightInvariant_EKF_sfun_registry.obj
 0002:000075d8       $unwind$sf_machine_global_method_dispatcher 00000001800565d8     RightInvariant_EKF_sfun_registry.obj
 0002:000075ec       $unwind$sf_machine_global_terminator 00000001800565ec     RightInvariant_EKF_sfun_registry.obj
 0002:000075f4       $unwind$sf_register_machine_exported_symbols 00000001800565f4     RightInvariant_EKF_sfun_registry.obj
 0002:000075fc       $unwind$sf_machine_global_initializer 00000001800565fc     RightInvariant_EKF_sfun_registry.obj
 0002:00007608       $unwind$mdlGetSimState     0000000180056608     RightInvariant_EKF_sfun_registry.obj
 0002:00007610       $unwind$mdlSetSimState     0000000180056610     RightInvariant_EKF_sfun_registry.obj
 0002:0000761c       $unwind$mdl_start_processing 000000018005661c     RightInvariant_EKF_sfun_registry.obj
 0002:00007628       $unwind$mdl_terminate_processing 0000000180056628     RightInvariant_EKF_sfun_registry.obj
 0002:00007634       $unwind$mdl_outputs_continuous_legacy 0000000180056634     RightInvariant_EKF_sfun_registry.obj
 0002:0000763c       $unwind$mdl_outputs_processing 000000018005663c     RightInvariant_EKF_sfun_registry.obj
 0002:00007648       $unwind$mdl_zeroCrossings_processing 0000000180056648     RightInvariant_EKF_sfun_registry.obj
 0002:00007650       $unwind$mdl_derivatives_processing 0000000180056650     RightInvariant_EKF_sfun_registry.obj
 0002:00007658       $unwind$mdl_initialize_conditions_processing 0000000180056658     RightInvariant_EKF_sfun_registry.obj
 0002:00007660       $unwind$mdl_ext_mode_exec_processing 0000000180056660     RightInvariant_EKF_sfun_registry.obj
 0002:00007668       $unwind$mdlRTW             0000000180056668     RightInvariant_EKF_sfun_registry.obj
 0002:00007674       $unwind$mdl_enable_processing 0000000180056674     RightInvariant_EKF_sfun_registry.obj
 0002:0000767c       $unwind$mdl_disable_processing 000000018005667c     RightInvariant_EKF_sfun_registry.obj
 0002:00007684       $unwind$mdl_update_processing 0000000180056684     RightInvariant_EKF_sfun_registry.obj
 0002:0000768c       $unwind$ProcessMexSfunctionEveryCall 000000018005668c     RightInvariant_EKF_sfun_registry.obj
 0002:00007694       $unwind$_RegNumInputPortsCB 0000000180056694     RightInvariant_EKF_sfun_registry.obj
 0002:0000769c       $unwind$_RegNumOutputPortsCB 000000018005669c     RightInvariant_EKF_sfun_registry.obj
 0002:000076a4       $unwind$_CreateSimStruct   00000001800566a4     RightInvariant_EKF_sfun_registry.obj
 0002:000076bc       $unwind$_ssFatalError      00000001800566bc     RightInvariant_EKF_sfun_registry.obj
 0002:000076d4       $unwind$_ProcessMexSfunctionCmdLineCall 00000001800566d4     RightInvariant_EKF_sfun_registry.obj
 0002:000076f0       $unwind$output1            00000001800566f0     p_RightToeBottom_src.obj
 0002:00007724       $unwind$output1            0000000180056724     p_LeftToeBottom_src.obj
 0002:00007758       $unwind$output1            0000000180056758     J_RightToeBottom_src.obj
 0002:0000778c       $unwind$output1            000000018005678c     J_LeftToeBottom_src.obj
 0002:000077c0       $unwind$output1            00000001800567c0     p_VectorNav_to_RightToeBottom_src.obj
 0002:000077f4       $unwind$output1            00000001800567f4     R_VectorNav_to_RightToeBottom_src.obj
 0002:00007828       $unwind$output1            0000000180056828     p_VectorNav_to_LeftToeBottom_src.obj
 0002:0000785c       $unwind$output1            000000018005685c     R_VectorNav_to_LeftToeBottom_src.obj
 0002:00007890       $unwind$output1            0000000180056890     J_VectorNav_to_RightToeBottom_src.obj
 0002:000078c4       $unwind$output1            00000001800568c4     J_VectorNav_to_LeftToeBottom_src.obj
 0002:000078f8       $unwind$load_StateEstimation_optimization_info 00000001800568f8     StateEstimation_sfun:StateEstimation_sfun.obj
 0002:00007908       $unwind$unload_StateEstimation_optimization_info 0000000180056908     StateEstimation_sfun:StateEstimation_sfun.obj
 0002:00007910       $unwind$sf_StateEstimation_method_dispatcher 0000000180056910     StateEstimation_sfun:StateEstimation_sfun.obj
 0002:00007918       $unwind$sf_StateEstimation_process_check_sum_call 0000000180056918     StateEstimation_sfun:StateEstimation_sfun.obj
 0002:00007930       $chain$0$sf_StateEstimation_process_check_sum_call 0000000180056930     StateEstimation_sfun:StateEstimation_sfun.obj
 0002:00007944       $chain$1$sf_StateEstimation_process_check_sum_call 0000000180056944     StateEstimation_sfun:StateEstimation_sfun.obj
 0002:00007954       $unwind$sf_StateEstimation_autoinheritance_info 0000000180056954     StateEstimation_sfun:StateEstimation_sfun.obj
 0002:0000796c       $unwind$sf_StateEstimation_get_eml_resolved_functions_info 000000018005696c     StateEstimation_sfun:StateEstimation_sfun.obj
 0002:00007980       $unwind$sf_StateEstimation_third_party_uses_info 0000000180056980     StateEstimation_sfun:StateEstimation_sfun.obj
 0002:00007998       $unwind$sf_StateEstimation_jit_fallback_info 0000000180056998     StateEstimation_sfun:StateEstimation_sfun.obj
 0002:000079b0       $unwind$sf_StateEstimation_updateBuildInfo_args_info 00000001800569b0     StateEstimation_sfun:StateEstimation_sfun.obj
 0002:000079c8       $unwind$StateEstimation_debug_initialize 00000001800569c8     StateEstimation_sfun:StateEstimation_sfun.obj
 0002:000079d0       $unwind$sf_c21_StateEstimation_get_eml_resolved_functions_info 00000001800569d0     StateEstimation_sfun:c21_StateEstimation.obj
 0002:000079e0       $unwind$sf_c21_StateEstimation_get_check_sum 00000001800569e0     StateEstimation_sfun:c21_StateEstimation.obj
 0002:000079e8       $unwind$chart_debug_initialization 00000001800569e8     StateEstimation_sfun:c21_StateEstimation.obj
 0002:000079f4       $chain$4$chart_debug_initialization 00000001800569f4     StateEstimation_sfun:c21_StateEstimation.obj
 0002:00007a18       $chain$5$chart_debug_initialization 0000000180056a18     StateEstimation_sfun:c21_StateEstimation.obj
 0002:00007a28       $unwind$chart_debug_initialize_data_addresses 0000000180056a28     StateEstimation_sfun:c21_StateEstimation.obj
 0002:00007a30       $chain$0$chart_debug_initialize_data_addresses 0000000180056a30     StateEstimation_sfun:c21_StateEstimation.obj
 0002:00007a44       $chain$1$chart_debug_initialize_data_addresses 0000000180056a44     StateEstimation_sfun:c21_StateEstimation.obj
 0002:00007a54       $unwind$initialize_c21_StateEstimation 0000000180056a54     StateEstimation_sfun:c21_StateEstimation.obj
 0002:00007a5c       $unwind$enable_c21_StateEstimation 0000000180056a5c     StateEstimation_sfun:c21_StateEstimation.obj
 0002:00007a64       $unwind$disable_c21_StateEstimation 0000000180056a64     StateEstimation_sfun:c21_StateEstimation.obj
 0002:00007a6c       $unwind$get_sim_state_c21_StateEstimation 0000000180056a6c     StateEstimation_sfun:c21_StateEstimation.obj
 0002:00007a78       $unwind$set_sim_state_c21_StateEstimation 0000000180056a78     StateEstimation_sfun:c21_StateEstimation.obj
 0002:00007a98       $unwind$sf_gateway_c21_StateEstimation 0000000180056a98     StateEstimation_sfun:c21_StateEstimation.obj
 0002:00007ab0       $chain$3$sf_gateway_c21_StateEstimation 0000000180056ab0     StateEstimation_sfun:c21_StateEstimation.obj
 0002:00007ad0       $chain$5$sf_gateway_c21_StateEstimation 0000000180056ad0     StateEstimation_sfun:c21_StateEstimation.obj
 0002:00007ae8       $chain$6$sf_gateway_c21_StateEstimation 0000000180056ae8     StateEstimation_sfun:c21_StateEstimation.obj
 0002:00007af8       $unwind$init_script_number_translation 0000000180056af8     StateEstimation_sfun:c21_StateEstimation.obj
 0002:00007b04       $unwind$c21_sf_marshallOut 0000000180056b04     StateEstimation_sfun:c21_StateEstimation.obj
 0002:00007b14       $unwind$c21_emlrt_marshallIn 0000000180056b14     StateEstimation_sfun:c21_StateEstimation.obj
 0002:00007b2c       $unwind$c21_b_emlrt_marshallIn 0000000180056b2c     StateEstimation_sfun:c21_StateEstimation.obj
 0002:00007b40       $unwind$c21_sf_marshallIn  0000000180056b40     StateEstimation_sfun:c21_StateEstimation.obj
 0002:00007b5c       $unwind$c21_b_sf_marshallOut 0000000180056b5c     StateEstimation_sfun:c21_StateEstimation.obj
 0002:00007b64       $unwind$c21_c_sf_marshallOut 0000000180056b64     StateEstimation_sfun:c21_StateEstimation.obj
 0002:00007b74       $unwind$c21_d_sf_marshallOut 0000000180056b74     StateEstimation_sfun:c21_StateEstimation.obj
 0002:00007b7c       $unwind$c21_c_emlrt_marshallIn 0000000180056b7c     StateEstimation_sfun:c21_StateEstimation.obj
 0002:00007b88       $unwind$c21_b_sf_marshallIn 0000000180056b88     StateEstimation_sfun:c21_StateEstimation.obj
 0002:00007b98       $unwind$c21_e_sf_marshallOut 0000000180056b98     StateEstimation_sfun:c21_StateEstimation.obj
 0002:00007bc0       $unwind$c21_d_emlrt_marshallIn 0000000180056bc0     StateEstimation_sfun:c21_StateEstimation.obj
 0002:00007bd8       $unwind$c21_c_sf_marshallIn 0000000180056bd8     StateEstimation_sfun:c21_StateEstimation.obj
 0002:00007bfc       $unwind$c21_e_emlrt_marshallIn 0000000180056bfc     StateEstimation_sfun:c21_StateEstimation.obj
 0002:00007c14       $unwind$c21_d_sf_marshallIn 0000000180056c14     StateEstimation_sfun:c21_StateEstimation.obj
 0002:00007c2c       $unwind$c21_f_sf_marshallOut 0000000180056c2c     StateEstimation_sfun:c21_StateEstimation.obj
 0002:00007c3c       $unwind$c21_f_emlrt_marshallIn 0000000180056c3c     StateEstimation_sfun:c21_StateEstimation.obj
 0002:00007c54       $unwind$c21_e_sf_marshallIn 0000000180056c54     StateEstimation_sfun:c21_StateEstimation.obj
 0002:00007c90       $unwind$c21_h_emlrt_marshallIn 0000000180056c90     StateEstimation_sfun:c21_StateEstimation.obj
 0002:00007c98       $unwind$c21_i_emlrt_marshallIn 0000000180056c98     StateEstimation_sfun:c21_StateEstimation.obj
 0002:00007ca0       $unwind$init_simulink_io_address 0000000180056ca0     StateEstimation_sfun:c21_StateEstimation.obj
 0002:00007ca8       $unwind$sf_c21_StateEstimation_get_post_codegen_info 0000000180056ca8     StateEstimation_sfun:c21_StateEstimation.obj
 0002:00007cbc       $unwind$sf_c21_StateEstimation_get_autoinheritance_info 0000000180056cbc     StateEstimation_sfun:c21_StateEstimation.obj
 0002:00007ce8       $unwind$sf_c21_StateEstimation_jit_fallback_info 0000000180056ce8     StateEstimation_sfun:c21_StateEstimation.obj
 0002:00007d08       $unwind$sf_get_sim_state_info_c21_StateEstimation 0000000180056d08     StateEstimation_sfun:c21_StateEstimation.obj
 0002:00007d18       $unwind$sf_opaque_initialize_c21_StateEstimation 0000000180056d18     StateEstimation_sfun:c21_StateEstimation.obj
 0002:00007d20       $unwind$sf_opaque_enable_c21_StateEstimation 0000000180056d20     StateEstimation_sfun:c21_StateEstimation.obj
 0002:00007d28       $unwind$sf_opaque_disable_c21_StateEstimation 0000000180056d28     StateEstimation_sfun:c21_StateEstimation.obj
 0002:00007d30       $unwind$sf_opaque_get_sim_state_c21_StateEstimation 0000000180056d30     StateEstimation_sfun:c21_StateEstimation.obj
 0002:00007d38       $unwind$sf_opaque_set_sim_state_c21_StateEstimation 0000000180056d38     StateEstimation_sfun:c21_StateEstimation.obj
 0002:00007d40       $unwind$sf_opaque_terminate_c21_StateEstimation 0000000180056d40     StateEstimation_sfun:c21_StateEstimation.obj
 0002:00007d48       $chain$0$sf_opaque_terminate_c21_StateEstimation 0000000180056d48     StateEstimation_sfun:c21_StateEstimation.obj
 0002:00007d5c       $chain$1$sf_opaque_terminate_c21_StateEstimation 0000000180056d5c     StateEstimation_sfun:c21_StateEstimation.obj
 0002:00007d6c       $unwind$mdlProcessParameters_c21_StateEstimation 0000000180056d6c     StateEstimation_sfun:c21_StateEstimation.obj
 0002:00007d74       $chain$0$mdlProcessParameters_c21_StateEstimation 0000000180056d74     StateEstimation_sfun:c21_StateEstimation.obj
 0002:00007d88       $chain$1$mdlProcessParameters_c21_StateEstimation 0000000180056d88     StateEstimation_sfun:c21_StateEstimation.obj
 0002:00007d9c       $chain$2$mdlProcessParameters_c21_StateEstimation 0000000180056d9c     StateEstimation_sfun:c21_StateEstimation.obj
 0002:00007dac       $chain$3$mdlProcessParameters_c21_StateEstimation 0000000180056dac     StateEstimation_sfun:c21_StateEstimation.obj
 0002:00007dbc       $unwind$mdlSetWorkWidths_c21_StateEstimation 0000000180056dbc     StateEstimation_sfun:c21_StateEstimation.obj
 0002:00007dc4       $chain$2$mdlSetWorkWidths_c21_StateEstimation 0000000180056dc4     StateEstimation_sfun:c21_StateEstimation.obj
 0002:00007de0       $chain$3$mdlSetWorkWidths_c21_StateEstimation 0000000180056de0     StateEstimation_sfun:c21_StateEstimation.obj
 0002:00007df8       $chain$4$mdlSetWorkWidths_c21_StateEstimation 0000000180056df8     StateEstimation_sfun:c21_StateEstimation.obj
 0002:00007e08       $unwind$mdlRTW_c21_StateEstimation 0000000180056e08     StateEstimation_sfun:c21_StateEstimation.obj
 0002:00007e10       $unwind$mdlStart_c21_StateEstimation 0000000180056e10     StateEstimation_sfun:c21_StateEstimation.obj
 0002:00007e1c       $unwind$sf_c41_StateEstimation_get_eml_resolved_functions_info 0000000180056e1c     StateEstimation_sfun:c41_StateEstimation.obj
 0002:00007e2c       $unwind$sf_c41_StateEstimation_get_check_sum 0000000180056e2c     StateEstimation_sfun:c41_StateEstimation.obj
 0002:00007e34       $unwind$chart_debug_initialization 0000000180056e34     StateEstimation_sfun:c41_StateEstimation.obj
 0002:00007e40       $chain$4$chart_debug_initialization 0000000180056e40     StateEstimation_sfun:c41_StateEstimation.obj
 0002:00007e64       $chain$5$chart_debug_initialization 0000000180056e64     StateEstimation_sfun:c41_StateEstimation.obj
 0002:00007e74       $unwind$chart_debug_initialize_data_addresses 0000000180056e74     StateEstimation_sfun:c41_StateEstimation.obj
 0002:00007e7c       $chain$0$chart_debug_initialize_data_addresses 0000000180056e7c     StateEstimation_sfun:c41_StateEstimation.obj
 0002:00007e90       $chain$1$chart_debug_initialize_data_addresses 0000000180056e90     StateEstimation_sfun:c41_StateEstimation.obj
 0002:00007ea0       $unwind$initialize_c41_StateEstimation 0000000180056ea0     StateEstimation_sfun:c41_StateEstimation.obj
 0002:00007ea8       $unwind$enable_c41_StateEstimation 0000000180056ea8     StateEstimation_sfun:c41_StateEstimation.obj
 0002:00007eb0       $unwind$disable_c41_StateEstimation 0000000180056eb0     StateEstimation_sfun:c41_StateEstimation.obj
 0002:00007eb8       $unwind$get_sim_state_c41_StateEstimation 0000000180056eb8     StateEstimation_sfun:c41_StateEstimation.obj
 0002:00007ec4       $unwind$set_sim_state_c41_StateEstimation 0000000180056ec4     StateEstimation_sfun:c41_StateEstimation.obj
 0002:00007ef0       $unwind$sf_gateway_c41_StateEstimation 0000000180056ef0     StateEstimation_sfun:c41_StateEstimation.obj
 0002:00007f00       $unwind$c41_chartstep_c41_StateEstimation 0000000180056f00     StateEstimation_sfun:c41_StateEstimation.obj
 0002:00007f50       $unwind$c41_Rotation_to_Quaternion 0000000180056f50     StateEstimation_sfun:c41_StateEstimation.obj
 0002:00007f80       $unwind$init_script_number_translation 0000000180056f80     StateEstimation_sfun:c41_StateEstimation.obj
 0002:00007f8c       $unwind$c41_sf_marshallOut 0000000180056f8c     StateEstimation_sfun:c41_StateEstimation.obj
 0002:00007f9c       $unwind$c41_emlrt_marshallIn 0000000180056f9c     StateEstimation_sfun:c41_StateEstimation.obj
 0002:00007fa8       $unwind$c41_b_emlrt_marshallIn 0000000180056fa8     StateEstimation_sfun:c41_StateEstimation.obj
 0002:00007fc0       $unwind$c41_sf_marshallIn  0000000180056fc0     StateEstimation_sfun:c41_StateEstimation.obj
 0002:00007fd8       $unwind$c41_b_sf_marshallOut 0000000180056fd8     StateEstimation_sfun:c41_StateEstimation.obj
 0002:00007fe8       $unwind$c41_c_emlrt_marshallIn 0000000180056fe8     StateEstimation_sfun:c41_StateEstimation.obj
 0002:00008000       $unwind$c41_d_emlrt_marshallIn 0000000180057000     StateEstimation_sfun:c41_StateEstimation.obj
 0002:00008014       $unwind$c41_b_sf_marshallIn 0000000180057014     StateEstimation_sfun:c41_StateEstimation.obj
 0002:00008030       $unwind$c41_c_sf_marshallOut 0000000180057030     StateEstimation_sfun:c41_StateEstimation.obj
 0002:00008040       $unwind$c41_e_emlrt_marshallIn 0000000180057040     StateEstimation_sfun:c41_StateEstimation.obj
 0002:00008058       $unwind$c41_f_emlrt_marshallIn 0000000180057058     StateEstimation_sfun:c41_StateEstimation.obj
 0002:0000806c       $unwind$c41_c_sf_marshallIn 000000018005706c     StateEstimation_sfun:c41_StateEstimation.obj
 0002:0000808c       $unwind$c41_d_sf_marshallOut 000000018005708c     StateEstimation_sfun:c41_StateEstimation.obj
 0002:000080a4       $unwind$c41_e_sf_marshallOut 00000001800570a4     StateEstimation_sfun:c41_StateEstimation.obj
 0002:000080ac       $unwind$c41_g_emlrt_marshallIn 00000001800570ac     StateEstimation_sfun:c41_StateEstimation.obj
 0002:000080b8       $unwind$c41_d_sf_marshallIn 00000001800570b8     StateEstimation_sfun:c41_StateEstimation.obj
 0002:000080c8       $unwind$c41_f_sf_marshallOut 00000001800570c8     StateEstimation_sfun:c41_StateEstimation.obj
 0002:000080d0       $unwind$c41_h_emlrt_marshallIn 00000001800570d0     StateEstimation_sfun:c41_StateEstimation.obj
 0002:000080dc       $unwind$c41_e_sf_marshallIn 00000001800570dc     StateEstimation_sfun:c41_StateEstimation.obj
 0002:000080f0       $unwind$c41_g_sf_marshallOut 00000001800570f0     StateEstimation_sfun:c41_StateEstimation.obj
 0002:00008100       $unwind$c41_i_emlrt_marshallIn 0000000180057100     StateEstimation_sfun:c41_StateEstimation.obj
 0002:00008118       $unwind$c41_f_sf_marshallIn 0000000180057118     StateEstimation_sfun:c41_StateEstimation.obj
 0002:00008144       $unwind$c41_h_sf_marshallOut 0000000180057144     StateEstimation_sfun:c41_StateEstimation.obj
 0002:00008154       $unwind$c41_j_emlrt_marshallIn 0000000180057154     StateEstimation_sfun:c41_StateEstimation.obj
 0002:0000816c       $unwind$c41_g_sf_marshallIn 000000018005716c     StateEstimation_sfun:c41_StateEstimation.obj
 0002:000081a8       $unwind$c41_i_sf_marshallOut 00000001800571a8     StateEstimation_sfun:c41_StateEstimation.obj
 0002:000081b8       $unwind$c41_k_emlrt_marshallIn 00000001800571b8     StateEstimation_sfun:c41_StateEstimation.obj
 0002:000081d0       $unwind$c41_h_sf_marshallIn 00000001800571d0     StateEstimation_sfun:c41_StateEstimation.obj
 0002:000081e8       $unwind$c41_error          00000001800571e8     StateEstimation_sfun:c41_StateEstimation.obj
 0002:000081f0       $unwind$c41_abs            00000001800571f0     StateEstimation_sfun:c41_StateEstimation.obj
 0002:00008200       $unwind$c41_check_forloop_overflow_error 0000000180057200     StateEstimation_sfun:c41_StateEstimation.obj
 0002:00008208       $unwind$c41_b_error        0000000180057208     StateEstimation_sfun:c41_StateEstimation.obj
 0002:00008210       $unwind$c41_c_error        0000000180057210     StateEstimation_sfun:c41_StateEstimation.obj
 0002:00008218       $unwind$c41_outputs_bus_io 0000000180057218     StateEstimation_sfun:c41_StateEstimation.obj
 0002:00008234       $unwind$c41_m_emlrt_marshallIn 0000000180057234     StateEstimation_sfun:c41_StateEstimation.obj
 0002:0000823c       $unwind$c41_n_emlrt_marshallIn 000000018005723c     StateEstimation_sfun:c41_StateEstimation.obj
 0002:00008244       $unwind$init_simulink_io_address 0000000180057244     StateEstimation_sfun:c41_StateEstimation.obj
 0002:0000824c       $unwind$sf_c41_StateEstimation_get_post_codegen_info 000000018005724c     StateEstimation_sfun:c41_StateEstimation.obj
 0002:00008260       $unwind$sf_c41_StateEstimation_get_autoinheritance_info 0000000180057260     StateEstimation_sfun:c41_StateEstimation.obj
 0002:0000828c       $unwind$sf_c41_StateEstimation_jit_fallback_info 000000018005728c     StateEstimation_sfun:c41_StateEstimation.obj
 0002:000082ac       $unwind$sf_get_sim_state_info_c41_StateEstimation 00000001800572ac     StateEstimation_sfun:c41_StateEstimation.obj
 0002:000082bc       $unwind$sf_opaque_initialize_c41_StateEstimation 00000001800572bc     StateEstimation_sfun:c41_StateEstimation.obj
 0002:000082c4       $unwind$sf_opaque_enable_c41_StateEstimation 00000001800572c4     StateEstimation_sfun:c41_StateEstimation.obj
 0002:000082cc       $unwind$sf_opaque_disable_c41_StateEstimation 00000001800572cc     StateEstimation_sfun:c41_StateEstimation.obj
 0002:000082d4       $unwind$sf_opaque_get_sim_state_c41_StateEstimation 00000001800572d4     StateEstimation_sfun:c41_StateEstimation.obj
 0002:000082dc       $unwind$sf_opaque_set_sim_state_c41_StateEstimation 00000001800572dc     StateEstimation_sfun:c41_StateEstimation.obj
 0002:000082e4       $unwind$sf_opaque_terminate_c41_StateEstimation 00000001800572e4     StateEstimation_sfun:c41_StateEstimation.obj
 0002:000082ec       $chain$0$sf_opaque_terminate_c41_StateEstimation 00000001800572ec     StateEstimation_sfun:c41_StateEstimation.obj
 0002:00008300       $chain$1$sf_opaque_terminate_c41_StateEstimation 0000000180057300     StateEstimation_sfun:c41_StateEstimation.obj
 0002:00008310       $unwind$mdlProcessParameters_c41_StateEstimation 0000000180057310     StateEstimation_sfun:c41_StateEstimation.obj
 0002:00008318       $chain$0$mdlProcessParameters_c41_StateEstimation 0000000180057318     StateEstimation_sfun:c41_StateEstimation.obj
 0002:0000832c       $chain$1$mdlProcessParameters_c41_StateEstimation 000000018005732c     StateEstimation_sfun:c41_StateEstimation.obj
 0002:00008340       $chain$2$mdlProcessParameters_c41_StateEstimation 0000000180057340     StateEstimation_sfun:c41_StateEstimation.obj
 0002:00008350       $chain$3$mdlProcessParameters_c41_StateEstimation 0000000180057350     StateEstimation_sfun:c41_StateEstimation.obj
 0002:00008360       $unwind$mdlSetWorkWidths_c41_StateEstimation 0000000180057360     StateEstimation_sfun:c41_StateEstimation.obj
 0002:00008368       $chain$2$mdlSetWorkWidths_c41_StateEstimation 0000000180057368     StateEstimation_sfun:c41_StateEstimation.obj
 0002:00008384       $chain$3$mdlSetWorkWidths_c41_StateEstimation 0000000180057384     StateEstimation_sfun:c41_StateEstimation.obj
 0002:0000839c       $chain$4$mdlSetWorkWidths_c41_StateEstimation 000000018005739c     StateEstimation_sfun:c41_StateEstimation.obj
 0002:000083ac       $unwind$mdlRTW_c41_StateEstimation 00000001800573ac     StateEstimation_sfun:c41_StateEstimation.obj
 0002:000083b4       $unwind$mdlStart_c41_StateEstimation 00000001800573b4     StateEstimation_sfun:c41_StateEstimation.obj
 0002:000083c0       $unwind$sf_c42_StateEstimation_get_eml_resolved_functions_info 00000001800573c0     StateEstimation_sfun:c42_StateEstimation.obj
 0002:000083d0       $unwind$sf_c42_StateEstimation_get_check_sum 00000001800573d0     StateEstimation_sfun:c42_StateEstimation.obj
 0002:000083d8       $unwind$chart_debug_initialization 00000001800573d8     StateEstimation_sfun:c42_StateEstimation.obj
 0002:000083e8       $chain$3$chart_debug_initialization 00000001800573e8     StateEstimation_sfun:c42_StateEstimation.obj
 0002:00008408       $chain$4$chart_debug_initialization 0000000180057408     StateEstimation_sfun:c42_StateEstimation.obj
 0002:00008418       $unwind$chart_debug_initialize_data_addresses 0000000180057418     StateEstimation_sfun:c42_StateEstimation.obj
 0002:00008420       $chain$0$chart_debug_initialize_data_addresses 0000000180057420     StateEstimation_sfun:c42_StateEstimation.obj
 0002:00008434       $chain$1$chart_debug_initialize_data_addresses 0000000180057434     StateEstimation_sfun:c42_StateEstimation.obj
 0002:00008444       $unwind$initialize_c42_StateEstimation 0000000180057444     StateEstimation_sfun:c42_StateEstimation.obj
 0002:0000844c       $unwind$enable_c42_StateEstimation 000000018005744c     StateEstimation_sfun:c42_StateEstimation.obj
 0002:00008454       $unwind$disable_c42_StateEstimation 0000000180057454     StateEstimation_sfun:c42_StateEstimation.obj
 0002:0000845c       $unwind$get_sim_state_c42_StateEstimation 000000018005745c     StateEstimation_sfun:c42_StateEstimation.obj
 0002:00008468       $unwind$set_sim_state_c42_StateEstimation 0000000180057468     StateEstimation_sfun:c42_StateEstimation.obj
 0002:0000848c       $unwind$sf_gateway_c42_StateEstimation 000000018005748c     StateEstimation_sfun:c42_StateEstimation.obj
 0002:000084c8       $unwind$c42_scaleFactor    00000001800574c8     StateEstimation_sfun:c42_StateEstimation.obj
 0002:000084e0       $unwind$init_script_number_translation 00000001800574e0     StateEstimation_sfun:c42_StateEstimation.obj
 0002:000084ec       $unwind$c42_sf_marshallOut 00000001800574ec     StateEstimation_sfun:c42_StateEstimation.obj
 0002:000084f4       $unwind$c42_emlrt_marshallIn 00000001800574f4     StateEstimation_sfun:c42_StateEstimation.obj
 0002:00008500       $unwind$c42_b_emlrt_marshallIn 0000000180057500     StateEstimation_sfun:c42_StateEstimation.obj
 0002:0000850c       $unwind$c42_sf_marshallIn  000000018005750c     StateEstimation_sfun:c42_StateEstimation.obj
 0002:00008520       $unwind$c42_b_sf_marshallOut 0000000180057520     StateEstimation_sfun:c42_StateEstimation.obj
 0002:00008530       $unwind$c42_c_emlrt_marshallIn 0000000180057530     StateEstimation_sfun:c42_StateEstimation.obj
 0002:00008548       $unwind$c42_d_emlrt_marshallIn 0000000180057548     StateEstimation_sfun:c42_StateEstimation.obj
 0002:0000855c       $unwind$c42_b_sf_marshallIn 000000018005755c     StateEstimation_sfun:c42_StateEstimation.obj
 0002:0000857c       $unwind$c42_c_sf_marshallOut 000000018005757c     StateEstimation_sfun:c42_StateEstimation.obj
 0002:0000858c       $unwind$c42_d_sf_marshallOut 000000018005758c     StateEstimation_sfun:c42_StateEstimation.obj
 0002:00008594       $unwind$c42_e_emlrt_marshallIn 0000000180057594     StateEstimation_sfun:c42_StateEstimation.obj
 0002:000085a0       $unwind$c42_c_sf_marshallIn 00000001800575a0     StateEstimation_sfun:c42_StateEstimation.obj
 0002:000085b0       $unwind$c42_e_sf_marshallOut 00000001800575b0     StateEstimation_sfun:c42_StateEstimation.obj
 0002:000085c0       $unwind$c42_f_emlrt_marshallIn 00000001800575c0     StateEstimation_sfun:c42_StateEstimation.obj
 0002:000085d8       $unwind$c42_d_sf_marshallIn 00000001800575d8     StateEstimation_sfun:c42_StateEstimation.obj
 0002:000085f0       $unwind$c42_g_emlrt_marshallIn 00000001800575f0     StateEstimation_sfun:c42_StateEstimation.obj
 0002:00008608       $unwind$c42_e_sf_marshallIn 0000000180057608     StateEstimation_sfun:c42_StateEstimation.obj
 0002:00008620       $unwind$c42_mldivide       0000000180057620     StateEstimation_sfun:c42_StateEstimation.obj
 0002:00008648       $unwind$c42_warning        0000000180057648     StateEstimation_sfun:c42_StateEstimation.obj
 0002:00008650       $unwind$c42_i_emlrt_marshallIn 0000000180057650     StateEstimation_sfun:c42_StateEstimation.obj
 0002:00008658       $unwind$c42_j_emlrt_marshallIn 0000000180057658     StateEstimation_sfun:c42_StateEstimation.obj
 0002:00008660       $unwind$init_simulink_io_address 0000000180057660     StateEstimation_sfun:c42_StateEstimation.obj
 0002:00008668       $unwind$sf_c42_StateEstimation_get_post_codegen_info 0000000180057668     StateEstimation_sfun:c42_StateEstimation.obj
 0002:0000867c       $unwind$sf_c42_StateEstimation_get_autoinheritance_info 000000018005767c     StateEstimation_sfun:c42_StateEstimation.obj
 0002:000086a4       $unwind$sf_c42_StateEstimation_jit_fallback_info 00000001800576a4     StateEstimation_sfun:c42_StateEstimation.obj
 0002:000086c4       $unwind$sf_get_sim_state_info_c42_StateEstimation 00000001800576c4     StateEstimation_sfun:c42_StateEstimation.obj
 0002:000086d4       $unwind$sf_opaque_initialize_c42_StateEstimation 00000001800576d4     StateEstimation_sfun:c42_StateEstimation.obj
 0002:000086e0       $unwind$sf_opaque_enable_c42_StateEstimation 00000001800576e0     StateEstimation_sfun:c42_StateEstimation.obj
 0002:000086e8       $unwind$sf_opaque_disable_c42_StateEstimation 00000001800576e8     StateEstimation_sfun:c42_StateEstimation.obj
 0002:000086f0       $unwind$sf_opaque_get_sim_state_c42_StateEstimation 00000001800576f0     StateEstimation_sfun:c42_StateEstimation.obj
 0002:000086f8       $unwind$sf_opaque_set_sim_state_c42_StateEstimation 00000001800576f8     StateEstimation_sfun:c42_StateEstimation.obj
 0002:00008700       $unwind$sf_opaque_terminate_c42_StateEstimation 0000000180057700     StateEstimation_sfun:c42_StateEstimation.obj
 0002:00008708       $chain$0$sf_opaque_terminate_c42_StateEstimation 0000000180057708     StateEstimation_sfun:c42_StateEstimation.obj
 0002:0000871c       $chain$1$sf_opaque_terminate_c42_StateEstimation 000000018005771c     StateEstimation_sfun:c42_StateEstimation.obj
 0002:0000872c       $unwind$mdlProcessParameters_c42_StateEstimation 000000018005772c     StateEstimation_sfun:c42_StateEstimation.obj
 0002:00008734       $chain$0$mdlProcessParameters_c42_StateEstimation 0000000180057734     StateEstimation_sfun:c42_StateEstimation.obj
 0002:00008748       $chain$1$mdlProcessParameters_c42_StateEstimation 0000000180057748     StateEstimation_sfun:c42_StateEstimation.obj
 0002:0000875c       $chain$2$mdlProcessParameters_c42_StateEstimation 000000018005775c     StateEstimation_sfun:c42_StateEstimation.obj
 0002:0000876c       $chain$3$mdlProcessParameters_c42_StateEstimation 000000018005776c     StateEstimation_sfun:c42_StateEstimation.obj
 0002:0000877c       $unwind$mdlSetWorkWidths_c42_StateEstimation 000000018005777c     StateEstimation_sfun:c42_StateEstimation.obj
 0002:00008784       $chain$2$mdlSetWorkWidths_c42_StateEstimation 0000000180057784     StateEstimation_sfun:c42_StateEstimation.obj
 0002:000087a0       $chain$3$mdlSetWorkWidths_c42_StateEstimation 00000001800577a0     StateEstimation_sfun:c42_StateEstimation.obj
 0002:000087b8       $chain$4$mdlSetWorkWidths_c42_StateEstimation 00000001800577b8     StateEstimation_sfun:c42_StateEstimation.obj
 0002:000087c8       $unwind$mdlRTW_c42_StateEstimation 00000001800577c8     StateEstimation_sfun:c42_StateEstimation.obj
 0002:000087d0       $unwind$mdlStart_c42_StateEstimation 00000001800577d0     StateEstimation_sfun:c42_StateEstimation.obj
 0002:000087dc       $unwind$load_UDP_Communication_optimization_info 00000001800577dc     UDP_Communication_sfun:UDP_Communication_sfun.obj
 0002:000087ec       $unwind$unload_UDP_Communication_optimization_info 00000001800577ec     UDP_Communication_sfun:UDP_Communication_sfun.obj
 0002:000087f4       $unwind$sf_UDP_Communication_method_dispatcher 00000001800577f4     UDP_Communication_sfun:UDP_Communication_sfun.obj
 0002:000087fc       $unwind$sf_UDP_Communication_process_check_sum_call 00000001800577fc     UDP_Communication_sfun:UDP_Communication_sfun.obj
 0002:00008814       $chain$0$sf_UDP_Communication_process_check_sum_call 0000000180057814     UDP_Communication_sfun:UDP_Communication_sfun.obj
 0002:00008828       $chain$1$sf_UDP_Communication_process_check_sum_call 0000000180057828     UDP_Communication_sfun:UDP_Communication_sfun.obj
 0002:00008838       $unwind$sf_UDP_Communication_autoinheritance_info 0000000180057838     UDP_Communication_sfun:UDP_Communication_sfun.obj
 0002:00008850       $unwind$sf_UDP_Communication_get_eml_resolved_functions_info 0000000180057850     UDP_Communication_sfun:UDP_Communication_sfun.obj
 0002:00008864       $unwind$sf_UDP_Communication_third_party_uses_info 0000000180057864     UDP_Communication_sfun:UDP_Communication_sfun.obj
 0002:0000887c       $unwind$sf_UDP_Communication_jit_fallback_info 000000018005787c     UDP_Communication_sfun:UDP_Communication_sfun.obj
 0002:00008894       $unwind$sf_UDP_Communication_updateBuildInfo_args_info 0000000180057894     UDP_Communication_sfun:UDP_Communication_sfun.obj
 0002:000088ac       $unwind$UDP_Communication_debug_initialize 00000001800578ac     UDP_Communication_sfun:UDP_Communication_sfun.obj
 0002:000088b4       $unwind$sf_c43_UDP_Communication_get_eml_resolved_functions_info 00000001800578b4     UDP_Communication_sfun:c43_UDP_Communication.obj
 0002:000088c4       $unwind$sf_c43_UDP_Communication_get_check_sum 00000001800578c4     UDP_Communication_sfun:c43_UDP_Communication.obj
 0002:000088cc       $unwind$chart_debug_initialization 00000001800578cc     UDP_Communication_sfun:c43_UDP_Communication.obj
 0002:000088dc       $chain$3$chart_debug_initialization 00000001800578dc     UDP_Communication_sfun:c43_UDP_Communication.obj
 0002:000088fc       $chain$4$chart_debug_initialization 00000001800578fc     UDP_Communication_sfun:c43_UDP_Communication.obj
 0002:0000890c       $unwind$chart_debug_initialize_data_addresses 000000018005790c     UDP_Communication_sfun:c43_UDP_Communication.obj
 0002:00008914       $chain$0$chart_debug_initialize_data_addresses 0000000180057914     UDP_Communication_sfun:c43_UDP_Communication.obj
 0002:00008928       $chain$1$chart_debug_initialize_data_addresses 0000000180057928     UDP_Communication_sfun:c43_UDP_Communication.obj
 0002:00008938       $unwind$initialize_c43_UDP_Communication 0000000180057938     UDP_Communication_sfun:c43_UDP_Communication.obj
 0002:00008940       $unwind$enable_c43_UDP_Communication 0000000180057940     UDP_Communication_sfun:c43_UDP_Communication.obj
 0002:00008948       $unwind$disable_c43_UDP_Communication 0000000180057948     UDP_Communication_sfun:c43_UDP_Communication.obj
 0002:00008950       $unwind$get_sim_state_c43_UDP_Communication 0000000180057950     UDP_Communication_sfun:c43_UDP_Communication.obj
 0002:0000895c       $unwind$set_sim_state_c43_UDP_Communication 000000018005795c     UDP_Communication_sfun:c43_UDP_Communication.obj
 0002:00008980       $unwind$sf_gateway_c43_UDP_Communication 0000000180057980     UDP_Communication_sfun:c43_UDP_Communication.obj
 0002:000089d0       $unwind$c43_Rotation_to_Quaternion 00000001800579d0     UDP_Communication_sfun:c43_UDP_Communication.obj
 0002:00008a00       $unwind$init_script_number_translation 0000000180057a00     UDP_Communication_sfun:c43_UDP_Communication.obj
 0002:00008a0c       $unwind$c43_sf_marshallOut 0000000180057a0c     UDP_Communication_sfun:c43_UDP_Communication.obj
 0002:00008a1c       $unwind$c43_emlrt_marshallIn 0000000180057a1c     UDP_Communication_sfun:c43_UDP_Communication.obj
 0002:00008a28       $unwind$c43_b_emlrt_marshallIn 0000000180057a28     UDP_Communication_sfun:c43_UDP_Communication.obj
 0002:00008a40       $unwind$c43_sf_marshallIn  0000000180057a40     UDP_Communication_sfun:c43_UDP_Communication.obj
 0002:00008a58       $unwind$c43_b_sf_marshallOut 0000000180057a58     UDP_Communication_sfun:c43_UDP_Communication.obj
 0002:00008a68       $unwind$c43_c_sf_marshallOut 0000000180057a68     UDP_Communication_sfun:c43_UDP_Communication.obj
 0002:00008a78       $unwind$c43_d_sf_marshallOut 0000000180057a78     UDP_Communication_sfun:c43_UDP_Communication.obj
 0002:00008a80       $unwind$c43_c_emlrt_marshallIn 0000000180057a80     UDP_Communication_sfun:c43_UDP_Communication.obj
 0002:00008a8c       $unwind$c43_b_sf_marshallIn 0000000180057a8c     UDP_Communication_sfun:c43_UDP_Communication.obj
 0002:00008a9c       $unwind$c43_e_sf_marshallOut 0000000180057a9c     UDP_Communication_sfun:c43_UDP_Communication.obj
 0002:00008aac       $unwind$c43_d_emlrt_marshallIn 0000000180057aac     UDP_Communication_sfun:c43_UDP_Communication.obj
 0002:00008ac4       $unwind$c43_c_sf_marshallIn 0000000180057ac4     UDP_Communication_sfun:c43_UDP_Communication.obj
 0002:00008b00       $unwind$c43_f_sf_marshallOut 0000000180057b00     UDP_Communication_sfun:c43_UDP_Communication.obj
 0002:00008b10       $unwind$c43_e_emlrt_marshallIn 0000000180057b10     UDP_Communication_sfun:c43_UDP_Communication.obj
 0002:00008b24       $unwind$c43_d_sf_marshallIn 0000000180057b24     UDP_Communication_sfun:c43_UDP_Communication.obj
 0002:00008b40       $unwind$c43_g_sf_marshallOut 0000000180057b40     UDP_Communication_sfun:c43_UDP_Communication.obj
 0002:00008b50       $unwind$c43_f_emlrt_marshallIn 0000000180057b50     UDP_Communication_sfun:c43_UDP_Communication.obj
 0002:00008b68       $unwind$c43_e_sf_marshallIn 0000000180057b68     UDP_Communication_sfun:c43_UDP_Communication.obj
 0002:00008b80       $unwind$c43_h_sf_marshallOut 0000000180057b80     UDP_Communication_sfun:c43_UDP_Communication.obj
 0002:00008b90       $unwind$c43_g_emlrt_marshallIn 0000000180057b90     UDP_Communication_sfun:c43_UDP_Communication.obj
 0002:00008ba4       $unwind$c43_f_sf_marshallIn 0000000180057ba4     UDP_Communication_sfun:c43_UDP_Communication.obj
 0002:00008bc4       $unwind$c43_abs            0000000180057bc4     UDP_Communication_sfun:c43_UDP_Communication.obj
 0002:00008bd4       $unwind$c43_check_forloop_overflow_error 0000000180057bd4     UDP_Communication_sfun:c43_UDP_Communication.obj
 0002:00008bdc       $unwind$c43_error          0000000180057bdc     UDP_Communication_sfun:c43_UDP_Communication.obj
 0002:00008be4       $unwind$c43_i_emlrt_marshallIn 0000000180057be4     UDP_Communication_sfun:c43_UDP_Communication.obj
 0002:00008bec       $unwind$c43_j_emlrt_marshallIn 0000000180057bec     UDP_Communication_sfun:c43_UDP_Communication.obj
 0002:00008bf4       $unwind$init_simulink_io_address 0000000180057bf4     UDP_Communication_sfun:c43_UDP_Communication.obj
 0002:00008bfc       $unwind$sf_c43_UDP_Communication_get_post_codegen_info 0000000180057bfc     UDP_Communication_sfun:c43_UDP_Communication.obj
 0002:00008c10       $unwind$sf_c43_UDP_Communication_get_autoinheritance_info 0000000180057c10     UDP_Communication_sfun:c43_UDP_Communication.obj
 0002:00008c38       $unwind$sf_c43_UDP_Communication_jit_fallback_info 0000000180057c38     UDP_Communication_sfun:c43_UDP_Communication.obj
 0002:00008c58       $unwind$sf_get_sim_state_info_c43_UDP_Communication 0000000180057c58     UDP_Communication_sfun:c43_UDP_Communication.obj
 0002:00008c68       $unwind$sf_opaque_initialize_c43_UDP_Communication 0000000180057c68     UDP_Communication_sfun:c43_UDP_Communication.obj
 0002:00008c74       $unwind$sf_opaque_enable_c43_UDP_Communication 0000000180057c74     UDP_Communication_sfun:c43_UDP_Communication.obj
 0002:00008c7c       $unwind$sf_opaque_disable_c43_UDP_Communication 0000000180057c7c     UDP_Communication_sfun:c43_UDP_Communication.obj
 0002:00008c84       $unwind$sf_opaque_get_sim_state_c43_UDP_Communication 0000000180057c84     UDP_Communication_sfun:c43_UDP_Communication.obj
 0002:00008c8c       $unwind$sf_opaque_set_sim_state_c43_UDP_Communication 0000000180057c8c     UDP_Communication_sfun:c43_UDP_Communication.obj
 0002:00008c94       $unwind$sf_opaque_terminate_c43_UDP_Communication 0000000180057c94     UDP_Communication_sfun:c43_UDP_Communication.obj
 0002:00008c9c       $chain$0$sf_opaque_terminate_c43_UDP_Communication 0000000180057c9c     UDP_Communication_sfun:c43_UDP_Communication.obj
 0002:00008cb0       $chain$1$sf_opaque_terminate_c43_UDP_Communication 0000000180057cb0     UDP_Communication_sfun:c43_UDP_Communication.obj
 0002:00008cc0       $unwind$mdlProcessParameters_c43_UDP_Communication 0000000180057cc0     UDP_Communication_sfun:c43_UDP_Communication.obj
 0002:00008cc8       $chain$0$mdlProcessParameters_c43_UDP_Communication 0000000180057cc8     UDP_Communication_sfun:c43_UDP_Communication.obj
 0002:00008cdc       $chain$1$mdlProcessParameters_c43_UDP_Communication 0000000180057cdc     UDP_Communication_sfun:c43_UDP_Communication.obj
 0002:00008cf0       $chain$2$mdlProcessParameters_c43_UDP_Communication 0000000180057cf0     UDP_Communication_sfun:c43_UDP_Communication.obj
 0002:00008d00       $chain$3$mdlProcessParameters_c43_UDP_Communication 0000000180057d00     UDP_Communication_sfun:c43_UDP_Communication.obj
 0002:00008d10       $unwind$mdlSetWorkWidths_c43_UDP_Communication 0000000180057d10     UDP_Communication_sfun:c43_UDP_Communication.obj
 0002:00008d18       $chain$2$mdlSetWorkWidths_c43_UDP_Communication 0000000180057d18     UDP_Communication_sfun:c43_UDP_Communication.obj
 0002:00008d34       $chain$3$mdlSetWorkWidths_c43_UDP_Communication 0000000180057d34     UDP_Communication_sfun:c43_UDP_Communication.obj
 0002:00008d4c       $chain$4$mdlSetWorkWidths_c43_UDP_Communication 0000000180057d4c     UDP_Communication_sfun:c43_UDP_Communication.obj
 0002:00008d5c       $unwind$mdlRTW_c43_UDP_Communication 0000000180057d5c     UDP_Communication_sfun:c43_UDP_Communication.obj
 0002:00008d64       $unwind$mdlStart_c43_UDP_Communication 0000000180057d64     UDP_Communication_sfun:c43_UDP_Communication.obj
 0002:00008d70       $unwind$__GSHandlerCheckCommon 0000000180057d70     MSVCRT:_gshandler_.obj
 0002:00008d78       $unwind$__GSHandlerCheck   0000000180057d78     MSVCRT:_gshandler_.obj
 0002:00008d80       $xdatasym                  0000000180057d80     MSVCRT:_amdsecgs_.obj
 0002:00008d88       $xdatasym                  0000000180057d88     MSVCRT:_chkstk_.obj
 0002:00008d90       $unwind$?dllmain_crt_process_attach@@YAHQEAUHINSTANCE__@@QEAX@Z 0000000180057d90     MSVCRT:dll_dllmain.obj
 0002:00008dbc       $unwind$?fin$0@?0??dllmain_crt_process_attach@@YAHQEAUHINSTANCE__@@QEAX@Z@4HA 0000000180057dbc     MSVCRT:dll_dllmain.obj
 0002:00008dc4       $unwind$?dllmain_crt_process_detach@@YAH_N@Z 0000000180057dc4     MSVCRT:dll_dllmain.obj
 0002:00008dec       $unwind$?fin$0@?0??dllmain_crt_process_detach@@YAH_N@Z@4HA 0000000180057dec     MSVCRT:dll_dllmain.obj
 0002:00008df4       $unwind$?dllmain_crt_dispatch@@YAHQEAUHINSTANCE__@@KQEAX@Z 0000000180057df4     MSVCRT:dll_dllmain.obj
 0002:00008dfc       $unwind$?dllmain_raw@@YAHQEAUHINSTANCE__@@KQEAX@Z 0000000180057dfc     MSVCRT:dll_dllmain.obj
 0002:00008e10       $unwind$?dllmain_dispatch@@YAHQEAUHINSTANCE__@@KQEAX@Z 0000000180057e10     MSVCRT:dll_dllmain.obj
 0002:00008e38       $unwind$?filt$0@?0??dllmain_dispatch@@YAHQEAUHINSTANCE__@@KQEAX@Z@4HA 0000000180057e38     MSVCRT:dll_dllmain.obj
 0002:00008e40       $unwind$_DllMainCRTStartup 0000000180057e40     MSVCRT:dll_dllmain.obj
 0002:00008e50       $unwind$__report_securityfailure 0000000180057e50     MSVCRT:gs_report.obj
 0002:00008e58       $unwind$__report_securityfailureEx 0000000180057e58     MSVCRT:gs_report.obj
 0002:00008e60       $unwind$__report_rangecheckfailure 0000000180057e60     MSVCRT:gs_report.obj
 0002:00008e68       $unwind$__report_gsfailure 0000000180057e68     MSVCRT:gs_report.obj
 0002:00008e70       $unwind$capture_current_context 0000000180057e70     MSVCRT:gs_report.obj
 0002:00008e7c       $unwind$capture_previous_context 0000000180057e7c     MSVCRT:gs_report.obj
 0002:00008e88       $unwind$__raise_securityfailure 0000000180057e88     MSVCRT:gs_report.obj
 0002:00008e90       $unwind$atexit             0000000180057e90     MSVCRT:utility.obj
 0002:00008e98       $unwind$_onexit            0000000180057e98     MSVCRT:utility.obj
 0002:00008ea0       $unwind$__scrt_is_nonwritable_in_current_image 0000000180057ea0     MSVCRT:utility.obj
 0002:00008ec0       $unwind$__scrt_is_nonwritable_in_current_image$filt$0 0000000180057ec0     MSVCRT:utility.obj
 0002:00008ec8       $unwind$__scrt_acquire_startup_lock 0000000180057ec8     MSVCRT:utility.obj
 0002:00008ed0       $unwind$__scrt_release_startup_lock 0000000180057ed0     MSVCRT:utility.obj
 0002:00008ed8       $unwind$__scrt_initialize_crt 0000000180057ed8     MSVCRT:utility.obj
 0002:00008ee0       $unwind$__scrt_uninitialize_crt 0000000180057ee0     MSVCRT:utility.obj
 0002:00008ee8       $unwind$__scrt_initialize_onexit_tables 0000000180057ee8     MSVCRT:utility.obj
 0002:00008ef4       $unwind$__scrt_dllmain_exception_filter 0000000180057ef4     MSVCRT:utility.obj
 0002:00008f08       $unwind$__scrt_dllmain_before_initialize_c 0000000180057f08     MSVCRT:utility.obj
 0002:00008f10       $unwind$__scrt_dllmain_after_initialize_c 0000000180057f10     MSVCRT:utility.obj
 0002:00008f18       $unwind$__scrt_dllmain_uninitialize_c 0000000180057f18     MSVCRT:utility.obj
 0002:00008f20       $unwind$__scrt_dllmain_uninitialize_critical 0000000180057f20     MSVCRT:utility.obj
 0002:00008f28       $unwind$__scrt_dllmain_crt_thread_attach 0000000180057f28     MSVCRT:utility.obj
 0002:00008f30       $unwind$__scrt_dllmain_crt_thread_detach 0000000180057f30     MSVCRT:utility.obj
 0002:00008f38       $unwind$?configure_argv@__scrt_narrow_argv_policy@@SAHXZ 0000000180057f38     MSVCRT:utility.obj
 0002:00008f40       $unwind$__security_init_cookie 0000000180057f40     MSVCRT:gs_support.obj
 0002:00008f4c       $unwind$DllMain            0000000180057f4c     MSVCRT:dll_dllmain_stub.obj
 0002:00008f54       $unwind$__scrt_initialize_default_local_stdio_options 0000000180057f54     MSVCRT:default_local_stdio_options.obj
 0002:00008f5c       $unwind$__scrt_get_show_window_mode 0000000180057f5c     MSVCRT:utility_desktop.obj
 0002:00008f64       $unwind$__scrt_is_managed_app 0000000180057f64     MSVCRT:utility_desktop.obj
 0002:00008f6c       $unwind$__scrt_fastfail    0000000180057f6c     MSVCRT:utility_desktop.obj
 0002:00008f7c       $unwind$__scrt_unhandled_exception_filter 0000000180057f7c     MSVCRT:utility_desktop.obj
 0002:00008f84       $unwind$_RTC_Initialize    0000000180057f84     MSVCRT:_initsect_.obj
 0002:00008f94       $unwind$_RTC_Terminate     0000000180057f94     MSVCRT:_initsect_.obj
 0002:00008fa4       $unwind$__isa_available_init 0000000180057fa4     MSVCRT:_cpu_disp_.obj
 0002:00008fb8       $xdatasym                  0000000180057fb8     MSVCRT:_guard_dispatch_.obj
 0002:00008fc0       .edata                     0000000180057fc0     RightInvariant_EKF_sfun.exp
 0002:00008fe8       rgpv                       0000000180057fe8     RightInvariant_EKF_sfun.exp
 0002:00008fec       rgszName                   0000000180057fec     RightInvariant_EKF_sfun.exp
 0002:00008ff0       rgwOrd                     0000000180057ff0     RightInvariant_EKF_sfun.exp
 0002:00008ff2       szName                     0000000180057ff2     RightInvariant_EKF_sfun.exp
 0002:00009011       $N00001                    0000000180058011     RightInvariant_EKF_sfun.exp
 0002:0000a18c       .idata$6                   000000018005918c     sf_runtime:sf_runtime.dll
 0002:0000a31c       .idata$6                   000000018005931c     libmx:libmx.dll
 0002:0000a39e       .idata$6                   000000018005939e     libmex:libmex.dll
 0002:0000a3c0       .idata$6                   00000001800593c0     libut:libut.dll
 0002:0000a4c8       .idata$6                   00000001800594c8     libmwmathutil:libmwmathutil.dll
 0002:0000a4fa       .idata$6                   00000001800594fa     libemlrt:libemlrt.dll
 0002:0000a694       .idata$6                   0000000180059694     kernel32:KERNEL32.dll
 0002:0000a6ee       .idata$6                   00000001800596ee     vcruntime:VCRUNTIME140.dll
 0002:0000a844       .idata$6                   0000000180059844     ucrt:api-ms-win-crt-string-l1-1-0.dll
 0002:0000a866       .idata$6                   0000000180059866     ucrt:api-ms-win-crt-math-l1-1-0.dll
 0002:0000a886       .idata$6                   0000000180059886     ucrt:api-ms-win-crt-heap-l1-1-0.dll
 0002:0000a8a6       .idata$6                   00000001800598a6     ucrt:api-ms-win-crt-stdio-l1-1-0.dll
 0002:0000a8c6       .idata$6                   00000001800598c6     ucrt:api-ms-win-crt-runtime-l1-1-0.dll
 0003:00000000       ?c1_cv2@?1??c1_error@@9@9  000000018005a000     c1_RightInvariant_EKF.obj
 0003:00000018       ?c1_cv3@?1??c1_b_error@@9@9 000000018005a018     c1_RightInvariant_EKF.obj
 0003:00000038       ?c1_cv4@?1??c1_c_error@@9@9 000000018005a038     c1_RightInvariant_EKF.obj
 0003:00000060       ?c1_iv0@?1??c1_chartstep_c1_RightInvariant_EKF@@9@9 000000018005a060     c1_RightInvariant_EKF.obj
 0003:00000070       ?c1_c_b@?1??c1_chartstep_c1_RightInvariant_EKF@@9@9 000000018005a070     c1_RightInvariant_EKF.obj
 0003:000000b8       ?c1_cv0@?1??c1_chartstep_c1_RightInvariant_EKF@@9@9 000000018005a0b8     c1_RightInvariant_EKF.obj
 0003:000000e0       ?c1_dv0@?1??c1_chartstep_c1_RightInvariant_EKF@@9@9 000000018005a0e0     c1_RightInvariant_EKF.obj
 0003:00000128       ?c1_cv1@?1??c1_chartstep_c1_RightInvariant_EKF@@9@9 000000018005a128     c1_RightInvariant_EKF.obj
 0003:00000148       ?condStart@?7??chart_debug_initialization@@9@9 000000018005a148     c1_RightInvariant_EKF.obj
 0003:00000150       ?condEnd@?7??chart_debug_initialization@@9@9 000000018005a150     c1_RightInvariant_EKF.obj
 0003:00000158       ?pfixExpr@?7??chart_debug_initialization@@9@9 000000018005a158     c1_RightInvariant_EKF.obj
 0003:00000170       c1_debug_family_names      000000018005a170     c1_RightInvariant_EKF.obj
 0003:000001d0       c1_b_debug_family_names    000000018005a1d0     c1_RightInvariant_EKF.obj
 0003:000001f0       c1_c_debug_family_names    000000018005a1f0     c1_RightInvariant_EKF.obj
 0003:00000220       ?c2_dv1@?1??sf_gateway_c2_RightInvariant_EKF@@9@9 000000018005a220     c2_RightInvariant_EKF.obj
 0003:00000258       ?c2_dv2@?1??sf_gateway_c2_RightInvariant_EKF@@9@9 000000018005a258     c2_RightInvariant_EKF.obj
 0003:00000290       ?c2_dv3@?1??sf_gateway_c2_RightInvariant_EKF@@9@9 000000018005a290     c2_RightInvariant_EKF.obj
 0003:000002c8       ?c2_dv4@?1??sf_gateway_c2_RightInvariant_EKF@@9@9 000000018005a2c8     c2_RightInvariant_EKF.obj
 0003:00000300       c2_debug_family_names      000000018005a300     c2_RightInvariant_EKF.obj
 0003:00000360       c2_b_debug_family_names    000000018005a360     c2_RightInvariant_EKF.obj
 0003:00000380       c2_c_debug_family_names    000000018005a380     c2_RightInvariant_EKF.obj
 0003:000003b0       c2_d_debug_family_names    000000018005a3b0     c2_RightInvariant_EKF.obj
 0003:000003d0       c2_e_debug_family_names    000000018005a3d0     c2_RightInvariant_EKF.obj
 0003:000003f0       ?c2_cv0@?1??c2_error@@9@9  000000018005a3f0     c2_RightInvariant_EKF.obj
 0003:00000410       ?c2_b@?1??sf_gateway_c2_RightInvariant_EKF@@9@9 000000018005a410     c2_RightInvariant_EKF.obj
 0003:00000460       ?c40_cv0@?1??c40_error@@9@9 000000018005a460     c40_RightInvariant_EKF.obj
 0003:00000478       ?c40_dv4@?1??c40_chartstep_c40_RightInvariant_EKF@@9@9 000000018005a478     c40_RightInvariant_EKF.obj
 0003:00000490       ?c40_dv5@?1??c40_chartstep_c40_RightInvariant_EKF@@9@9 000000018005a490     c40_RightInvariant_EKF.obj
 0003:000004a8       ?c40_dv6@?1??c40_chartstep_c40_RightInvariant_EKF@@9@9 000000018005a4a8     c40_RightInvariant_EKF.obj
 0003:000004c0       ?condStart@?7??chart_debug_initialization@@9@9 000000018005a4c0     c40_RightInvariant_EKF.obj
 0003:000004c8       ?condEnd@?7??chart_debug_initialization@@9@9 000000018005a4c8     c40_RightInvariant_EKF.obj
 0003:000004d0       ?pfixExpr@?7??chart_debug_initialization@@9@9 000000018005a4d0     c40_RightInvariant_EKF.obj
 0003:000004e0       ?condStart@?8??chart_debug_initialization@@9@9 000000018005a4e0     c40_RightInvariant_EKF.obj
 0003:000004e8       ?condEnd@?8??chart_debug_initialization@@9@9 000000018005a4e8     c40_RightInvariant_EKF.obj
 0003:000004f0       ?pfixExpr@?8??chart_debug_initialization@@9@9 000000018005a4f0     c40_RightInvariant_EKF.obj
 0003:00000500       ?condStart@?9??chart_debug_initialization@@9@9 000000018005a500     c40_RightInvariant_EKF.obj
 0003:00000508       ?condEnd@?9??chart_debug_initialization@@9@9 000000018005a508     c40_RightInvariant_EKF.obj
 0003:00000510       ?pfixExpr@?9??chart_debug_initialization@@9@9 000000018005a510     c40_RightInvariant_EKF.obj
 0003:00000520       c40_debug_family_names     000000018005a520     c40_RightInvariant_EKF.obj
 0003:000005d8       c40_b_debug_family_names   000000018005a5d8     c40_RightInvariant_EKF.obj
 0003:000005f8       c40_c_debug_family_names   000000018005a5f8     c40_RightInvariant_EKF.obj
 0003:00000618       c40_d_debug_family_names   000000018005a618     c40_RightInvariant_EKF.obj
 0003:00000638       c40_e_debug_family_names   000000018005a638     c40_RightInvariant_EKF.obj
 0003:00000658       c40_f_debug_family_names   000000018005a658     c40_RightInvariant_EKF.obj
 0003:00000678       c40_g_debug_family_names   000000018005a678     c40_RightInvariant_EKF.obj
 0003:00000698       c40_h_debug_family_names   000000018005a698     c40_RightInvariant_EKF.obj
 0003:000006b8       c40_i_debug_family_names   000000018005a6b8     c40_RightInvariant_EKF.obj
 0003:000006d8       c40_j_debug_family_names   000000018005a6d8     c40_RightInvariant_EKF.obj
 0003:000006f8       c40_k_debug_family_names   000000018005a6f8     c40_RightInvariant_EKF.obj
 0003:00000718       c40_l_debug_family_names   000000018005a718     c40_RightInvariant_EKF.obj
 0003:00000740       _sfcnName                  000000018005a740     RightInvariant_EKF_sfun_registry.obj
 0003:00000760       c21_debug_family_names     000000018005a760     StateEstimation_sfun:c21_StateEstimation.obj
 0003:000007b8       c21_b_debug_family_names   000000018005a7b8     StateEstimation_sfun:c21_StateEstimation.obj
 0003:000007d8       c21_c_debug_family_names   000000018005a7d8     StateEstimation_sfun:c21_StateEstimation.obj
 0003:000007f8       c21_d_debug_family_names   000000018005a7f8     StateEstimation_sfun:c21_StateEstimation.obj
 0003:00000818       c21_e_debug_family_names   000000018005a818     StateEstimation_sfun:c21_StateEstimation.obj
 0003:00000838       c21_f_debug_family_names   000000018005a838     StateEstimation_sfun:c21_StateEstimation.obj
 0003:00000860       ?c41_iv0@?1??c41_chartstep_c41_StateEstimation@@9@9 000000018005a860     StateEstimation_sfun:c41_StateEstimation.obj
 0003:00000870       ?c41_b@?1??c41_chartstep_c41_StateEstimation@@9@9 000000018005a870     StateEstimation_sfun:c41_StateEstimation.obj
 0003:000008b8       ?c41_cv1@?1??c41_check_forloop_overflow_error@@9@9 000000018005a8b8     StateEstimation_sfun:c41_StateEstimation.obj
 0003:000008e0       ?c41_h_a@?1??c41_chartstep_c41_StateEstimation@@9@9 000000018005a8e0     StateEstimation_sfun:c41_StateEstimation.obj
 0003:00000928       ?c41_cv2@?1??c41_check_forloop_overflow_error@@9@9 000000018005a928     StateEstimation_sfun:c41_StateEstimation.obj
 0003:00000930       c41_debug_family_names     000000018005a930     StateEstimation_sfun:c41_StateEstimation.obj
 0003:000009f8       ?c41_cv0@?1??c41_error@@9@9 000000018005a9f8     StateEstimation_sfun:c41_StateEstimation.obj
 0003:00000a18       c41_b_debug_family_names   000000018005aa18     StateEstimation_sfun:c41_StateEstimation.obj
 0003:00000a38       c41_c_debug_family_names   000000018005aa38     StateEstimation_sfun:c41_StateEstimation.obj
 0003:00000a68       c41_d_debug_family_names   000000018005aa68     StateEstimation_sfun:c41_StateEstimation.obj
 0003:00000a88       c41_f_debug_family_names   000000018005aa88     StateEstimation_sfun:c41_StateEstimation.obj
 0003:00000ac0       c41_e_debug_family_names   000000018005aac0     StateEstimation_sfun:c41_StateEstimation.obj
 0003:00000b28       ?c41_cv4@?1??c41_b_error@@9@9 000000018005ab28     StateEstimation_sfun:c41_StateEstimation.obj
 0003:00000b30       c41_g_debug_family_names   000000018005ab30     StateEstimation_sfun:c41_StateEstimation.obj
 0003:00000ba8       ?c41_cv3@?1??c41_b_error@@9@9 000000018005aba8     StateEstimation_sfun:c41_StateEstimation.obj
 0003:00000bc8       ?c41_cv5@?1??c41_c_error@@9@9 000000018005abc8     StateEstimation_sfun:c41_StateEstimation.obj
 0003:00000be8       ?c41_cv6@?1??c41_c_error@@9@9 000000018005abe8     StateEstimation_sfun:c41_StateEstimation.obj
 0003:00000bf0       ?c41_c_varargin_1@?1??c41_Rotation_to_Quaternion@@9@9 000000018005abf0     StateEstimation_sfun:c41_StateEstimation.obj
 0003:00000c20       ?caseStart@?7??chart_debug_initialization@@9@9 000000018005ac20     StateEstimation_sfun:c41_StateEstimation.obj
 0003:00000c38       ?caseExprEnd@?7??chart_debug_initialization@@9@9 000000018005ac38     StateEstimation_sfun:c41_StateEstimation.obj
 0003:00000c50       ?c42_cv0@?1??c42_warning@@9@9 000000018005ac50     StateEstimation_sfun:c42_StateEstimation.obj
 0003:00000c58       ?c42_cv1@?1??c42_warning@@9@9 000000018005ac58     StateEstimation_sfun:c42_StateEstimation.obj
 0003:00000c60       ?c42_msgID@?1??c42_warning@@9@9 000000018005ac60     StateEstimation_sfun:c42_StateEstimation.obj
 0003:00000c80       c42_debug_family_names     000000018005ac80     StateEstimation_sfun:c42_StateEstimation.obj
 0003:00000d08       c42_b_debug_family_names   000000018005ad08     StateEstimation_sfun:c42_StateEstimation.obj
 0003:00000d28       c42_c_debug_family_names   000000018005ad28     StateEstimation_sfun:c42_StateEstimation.obj
 0003:00000d50       c42_d_debug_family_names   000000018005ad50     StateEstimation_sfun:c42_StateEstimation.obj
 0003:00000d90       c42_e_debug_family_names   000000018005ad90     StateEstimation_sfun:c42_StateEstimation.obj
 0003:00000dc0       ?c43_c_varargin_1@?1??c43_Rotation_to_Quaternion@@9@9 000000018005adc0     UDP_Communication_sfun:c43_UDP_Communication.obj
 0003:00000df0       c43_debug_family_names     000000018005adf0     UDP_Communication_sfun:c43_UDP_Communication.obj
 0003:00000e20       c43_b_debug_family_names   000000018005ae20     UDP_Communication_sfun:c43_UDP_Communication.obj
 0003:00000e40       c43_c_debug_family_names   000000018005ae40     UDP_Communication_sfun:c43_UDP_Communication.obj
 0003:00000e60       c43_d_debug_family_names   000000018005ae60     UDP_Communication_sfun:c43_UDP_Communication.obj
 0003:00000ec8       ?c43_cv0@?1??c43_check_forloop_overflow_error@@9@9 000000018005aec8     UDP_Communication_sfun:c43_UDP_Communication.obj
 0003:00000eec       ?c43_cv1@?1??c43_check_forloop_overflow_error@@9@9 000000018005aeec     UDP_Communication_sfun:c43_UDP_Communication.obj
 0003:00000ef4       ?c43_cv3@?1??c43_error@@9@9 000000018005aef4     UDP_Communication_sfun:c43_UDP_Communication.obj
 0003:00000ef8       ?c43_cv2@?1??c43_error@@9@9 000000018005aef8     UDP_Communication_sfun:c43_UDP_Communication.obj
 0003:00000f18       ?c43_iv0@?1??sf_gateway_c43_UDP_Communication@@9@9 000000018005af18     UDP_Communication_sfun:c43_UDP_Communication.obj
 0003:00000f30       ?c43_iv1@?1??sf_gateway_c43_UDP_Communication@@9@9 000000018005af30     UDP_Communication_sfun:c43_UDP_Communication.obj
 0003:00000f48       ?caseStart@?7??chart_debug_initialization@@9@9 000000018005af48     UDP_Communication_sfun:c43_UDP_Communication.obj
 0003:00000f60       ?caseExprEnd@?7??chart_debug_initialization@@9@9 000000018005af60     UDP_Communication_sfun:c43_UDP_Communication.obj
 0003:00000fd0       sRtwOptimizationInfoStruct 000000018005afd0     RightInvariant_EKF_sfun.obj
 0003:00000fd8       sOptimizationInfoFlags     000000018005afd8     RightInvariant_EKF_sfun.obj
 0003:00000fe0       _sfTime_                   000000018005afe0     c1_RightInvariant_EKF.obj
 0003:00000fe8       _sfTime_                   000000018005afe8     c2_RightInvariant_EKF.obj
 0003:00000ff0       _sfTime_                   000000018005aff0     c40_RightInvariant_EKF.obj
 0003:00001008       sfGlobalMdlStartCallCounts 000000018005b008     RightInvariant_EKF_sfun_registry.obj
 0003:00001010       ?errmsg@?O@??ssWriteRTWWorkVect@@9@9 000000018005b010     RightInvariant_EKF_sfun_registry.obj
 0003:000010d8       sRtwOptimizationInfoStruct 000000018005b0d8     StateEstimation_sfun:StateEstimation_sfun.obj
 0003:000010e0       sOptimizationInfoFlags     000000018005b0e0     StateEstimation_sfun:StateEstimation_sfun.obj
 0003:000010e8       _sfTime_                   000000018005b0e8     StateEstimation_sfun:c21_StateEstimation.obj
 0003:000010f0       _sfTime_                   000000018005b0f0     StateEstimation_sfun:c41_StateEstimation.obj
 0003:000010f8       _sfTime_                   000000018005b0f8     StateEstimation_sfun:c42_StateEstimation.obj
 0003:00001100       sRtwOptimizationInfoStruct 000000018005b100     UDP_Communication_sfun:UDP_Communication_sfun.obj
 0003:00001108       sOptimizationInfoFlags     000000018005b108     UDP_Communication_sfun:UDP_Communication_sfun.obj
 0003:00001110       _sfTime_                   000000018005b110     UDP_Communication_sfun:c43_UDP_Communication.obj
 0003:00001118       ?__proc_attached@@3HA      000000018005b118     MSVCRT:dll_dllmain.obj
 0003:00001120       GS_ExceptionRecord         000000018005b120     MSVCRT:gs_report.obj
 0003:000011c0       GS_ContextRecord           000000018005b1c0     MSVCRT:gs_report.obj
 0003:000016a0       ?module_local_atexit_table@@3U_onexit_table_t@@A 000000018005b6a0     MSVCRT:utility.obj
 0003:000016b8       ?module_local_at_quick_exit_table@@3U_onexit_table_t@@A 000000018005b6b8     MSVCRT:utility.obj
 0003:000016d0       ?is_initialized_as_dll@@3_NA 000000018005b6d0     MSVCRT:utility.obj
 0004:00000000       $pdata$RightInvariant_EKF_debug_initialize 000000018005c000     RightInvariant_EKF_sfun.obj
 0004:0000000c       $pdata$load_RightInvariant_EKF_optimization_info 000000018005c00c     RightInvariant_EKF_sfun.obj
 0004:00000018       $pdata$sf_RightInvariant_EKF_autoinheritance_info 000000018005c018     RightInvariant_EKF_sfun.obj
 0004:00000024       $pdata$sf_RightInvariant_EKF_get_eml_resolved_functions_info 000000018005c024     RightInvariant_EKF_sfun.obj
 0004:00000030       $pdata$sf_RightInvariant_EKF_jit_fallback_info 000000018005c030     RightInvariant_EKF_sfun.obj
 0004:0000003c       $pdata$sf_RightInvariant_EKF_method_dispatcher 000000018005c03c     RightInvariant_EKF_sfun.obj
 0004:00000048       $pdata$sf_RightInvariant_EKF_process_check_sum_call 000000018005c048     RightInvariant_EKF_sfun.obj
 0004:00000054       $pdata$0$sf_RightInvariant_EKF_process_check_sum_call 000000018005c054     RightInvariant_EKF_sfun.obj
 0004:00000060       $pdata$1$sf_RightInvariant_EKF_process_check_sum_call 000000018005c060     RightInvariant_EKF_sfun.obj
 0004:0000006c       $pdata$sf_RightInvariant_EKF_third_party_uses_info 000000018005c06c     RightInvariant_EKF_sfun.obj
 0004:00000078       $pdata$sf_RightInvariant_EKF_updateBuildInfo_args_info 000000018005c078     RightInvariant_EKF_sfun.obj
 0004:00000084       $pdata$unload_RightInvariant_EKF_optimization_info 000000018005c084     RightInvariant_EKF_sfun.obj
 0004:00000090       $pdata$c1_b_eml_rand_mt19937ar 000000018005c090     c1_RightInvariant_EKF.obj
 0004:0000009c       $pdata$c1_b_emlrt_marshallIn 000000018005c09c     c1_RightInvariant_EKF.obj
 0004:000000a8       $pdata$c1_b_error          000000018005c0a8     c1_RightInvariant_EKF.obj
 0004:000000b4       $pdata$c1_b_sf_marshallIn  000000018005c0b4     c1_RightInvariant_EKF.obj
 0004:000000c0       $pdata$c1_b_sf_marshallOut 000000018005c0c0     c1_RightInvariant_EKF.obj
 0004:000000cc       $pdata$c1_c_emlrt_marshallIn 000000018005c0cc     c1_RightInvariant_EKF.obj
 0004:000000d8       $pdata$c1_c_error          000000018005c0d8     c1_RightInvariant_EKF.obj
 0004:000000e4       $pdata$c1_c_sf_marshallIn  000000018005c0e4     c1_RightInvariant_EKF.obj
 0004:000000f0       $pdata$c1_c_sf_marshallOut 000000018005c0f0     c1_RightInvariant_EKF.obj
 0004:000000fc       $pdata$c1_chartstep_c1_RightInvariant_EKF 000000018005c0fc     c1_RightInvariant_EKF.obj
 0004:00000108       $pdata$2$c1_chartstep_c1_RightInvariant_EKF 000000018005c108     c1_RightInvariant_EKF.obj
 0004:00000114       $pdata$3$c1_chartstep_c1_RightInvariant_EKF 000000018005c114     c1_RightInvariant_EKF.obj
 0004:00000120       $pdata$12$c1_chartstep_c1_RightInvariant_EKF 000000018005c120     c1_RightInvariant_EKF.obj
 0004:0000012c       $pdata$13$c1_chartstep_c1_RightInvariant_EKF 000000018005c12c     c1_RightInvariant_EKF.obj
 0004:00000138       $pdata$14$c1_chartstep_c1_RightInvariant_EKF 000000018005c138     c1_RightInvariant_EKF.obj
 0004:00000144       $pdata$15$c1_chartstep_c1_RightInvariant_EKF 000000018005c144     c1_RightInvariant_EKF.obj
 0004:00000150       $pdata$c1_d_emlrt_marshallIn 000000018005c150     c1_RightInvariant_EKF.obj
 0004:0000015c       $pdata$c1_d_sf_marshallIn  000000018005c15c     c1_RightInvariant_EKF.obj
 0004:00000168       $pdata$c1_d_sf_marshallOut 000000018005c168     c1_RightInvariant_EKF.obj
 0004:00000174       $pdata$c1_e_emlrt_marshallIn 000000018005c174     c1_RightInvariant_EKF.obj
 0004:00000180       $pdata$c1_e_sf_marshallIn  000000018005c180     c1_RightInvariant_EKF.obj
 0004:0000018c       $pdata$c1_e_sf_marshallOut 000000018005c18c     c1_RightInvariant_EKF.obj
 0004:00000198       $pdata$c1_emlrt_marshallIn 000000018005c198     c1_RightInvariant_EKF.obj
 0004:000001a4       $pdata$c1_error            000000018005c1a4     c1_RightInvariant_EKF.obj
 0004:000001b0       $pdata$c1_f_emlrt_marshallIn 000000018005c1b0     c1_RightInvariant_EKF.obj
 0004:000001bc       $pdata$c1_f_sf_marshallIn  000000018005c1bc     c1_RightInvariant_EKF.obj
 0004:000001c8       $pdata$c1_f_sf_marshallOut 000000018005c1c8     c1_RightInvariant_EKF.obj
 0004:000001d4       $pdata$c1_g_emlrt_marshallIn 000000018005c1d4     c1_RightInvariant_EKF.obj
 0004:000001e0       $pdata$c1_g_sf_marshallIn  000000018005c1e0     c1_RightInvariant_EKF.obj
 0004:000001ec       $pdata$c1_g_sf_marshallOut 000000018005c1ec     c1_RightInvariant_EKF.obj
 0004:000001f8       $pdata$c1_h_emlrt_marshallIn 000000018005c1f8     c1_RightInvariant_EKF.obj
 0004:00000204       $pdata$c1_j_emlrt_marshallIn 000000018005c204     c1_RightInvariant_EKF.obj
 0004:00000210       $pdata$c1_k_emlrt_marshallIn 000000018005c210     c1_RightInvariant_EKF.obj
 0004:0000021c       $pdata$c1_l_emlrt_marshallIn 000000018005c21c     c1_RightInvariant_EKF.obj
 0004:00000228       $pdata$c1_m_emlrt_marshallIn 000000018005c228     c1_RightInvariant_EKF.obj
 0004:00000234       $pdata$c1_n_emlrt_marshallIn 000000018005c234     c1_RightInvariant_EKF.obj
 0004:00000240       $pdata$c1_o_emlrt_marshallIn 000000018005c240     c1_RightInvariant_EKF.obj
 0004:0000024c       $pdata$c1_p_emlrt_marshallIn 000000018005c24c     c1_RightInvariant_EKF.obj
 0004:00000258       $pdata$c1_q_emlrt_marshallIn 000000018005c258     c1_RightInvariant_EKF.obj
 0004:00000264       $pdata$c1_rand             000000018005c264     c1_RightInvariant_EKF.obj
 0004:00000270       $pdata$5$c1_rand           000000018005c270     c1_RightInvariant_EKF.obj
 0004:0000027c       $pdata$6$c1_rand           000000018005c27c     c1_RightInvariant_EKF.obj
 0004:00000288       $pdata$c1_sf_marshallIn    000000018005c288     c1_RightInvariant_EKF.obj
 0004:00000294       $pdata$0$c1_sf_marshallIn  000000018005c294     c1_RightInvariant_EKF.obj
 0004:000002a0       $pdata$1$c1_sf_marshallIn  000000018005c2a0     c1_RightInvariant_EKF.obj
 0004:000002ac       $pdata$c1_sf_marshallOut   000000018005c2ac     c1_RightInvariant_EKF.obj
 0004:000002b8       $pdata$chart_debug_initialization 000000018005c2b8     c1_RightInvariant_EKF.obj
 0004:000002c4       $pdata$3$chart_debug_initialization 000000018005c2c4     c1_RightInvariant_EKF.obj
 0004:000002d0       $pdata$4$chart_debug_initialization 000000018005c2d0     c1_RightInvariant_EKF.obj
 0004:000002dc       $pdata$chart_debug_initialize_data_addresses 000000018005c2dc     c1_RightInvariant_EKF.obj
 0004:000002e8       $pdata$0$chart_debug_initialize_data_addresses 000000018005c2e8     c1_RightInvariant_EKF.obj
 0004:000002f4       $pdata$1$chart_debug_initialize_data_addresses 000000018005c2f4     c1_RightInvariant_EKF.obj
 0004:00000300       $pdata$disable_c1_RightInvariant_EKF 000000018005c300     c1_RightInvariant_EKF.obj
 0004:0000030c       $pdata$enable_c1_RightInvariant_EKF 000000018005c30c     c1_RightInvariant_EKF.obj
 0004:00000318       $pdata$get_sim_state_c1_RightInvariant_EKF 000000018005c318     c1_RightInvariant_EKF.obj
 0004:00000324       $pdata$init_script_number_translation 000000018005c324     c1_RightInvariant_EKF.obj
 0004:00000330       $pdata$init_simulink_io_address 000000018005c330     c1_RightInvariant_EKF.obj
 0004:0000033c       $pdata$initialize_c1_RightInvariant_EKF 000000018005c33c     c1_RightInvariant_EKF.obj
 0004:00000348       $pdata$mdlProcessParameters_c1_RightInvariant_EKF 000000018005c348     c1_RightInvariant_EKF.obj
 0004:00000354       $pdata$0$mdlProcessParameters_c1_RightInvariant_EKF 000000018005c354     c1_RightInvariant_EKF.obj
 0004:00000360       $pdata$1$mdlProcessParameters_c1_RightInvariant_EKF 000000018005c360     c1_RightInvariant_EKF.obj
 0004:0000036c       $pdata$2$mdlProcessParameters_c1_RightInvariant_EKF 000000018005c36c     c1_RightInvariant_EKF.obj
 0004:00000378       $pdata$3$mdlProcessParameters_c1_RightInvariant_EKF 000000018005c378     c1_RightInvariant_EKF.obj
 0004:00000384       $pdata$mdlRTW_c1_RightInvariant_EKF 000000018005c384     c1_RightInvariant_EKF.obj
 0004:00000390       $pdata$mdlSetWorkWidths_c1_RightInvariant_EKF 000000018005c390     c1_RightInvariant_EKF.obj
 0004:0000039c       $pdata$2$mdlSetWorkWidths_c1_RightInvariant_EKF 000000018005c39c     c1_RightInvariant_EKF.obj
 0004:000003a8       $pdata$3$mdlSetWorkWidths_c1_RightInvariant_EKF 000000018005c3a8     c1_RightInvariant_EKF.obj
 0004:000003b4       $pdata$4$mdlSetWorkWidths_c1_RightInvariant_EKF 000000018005c3b4     c1_RightInvariant_EKF.obj
 0004:000003c0       $pdata$mdlStart_c1_RightInvariant_EKF 000000018005c3c0     c1_RightInvariant_EKF.obj
 0004:000003cc       $pdata$set_sim_state_c1_RightInvariant_EKF 000000018005c3cc     c1_RightInvariant_EKF.obj
 0004:000003d8       $pdata$sf_c1_RightInvariant_EKF_get_autoinheritance_info 000000018005c3d8     c1_RightInvariant_EKF.obj
 0004:000003e4       $pdata$sf_c1_RightInvariant_EKF_get_check_sum 000000018005c3e4     c1_RightInvariant_EKF.obj
 0004:000003f0       $pdata$sf_c1_RightInvariant_EKF_get_eml_resolved_functions_info 000000018005c3f0     c1_RightInvariant_EKF.obj
 0004:000003fc       $pdata$sf_c1_RightInvariant_EKF_get_post_codegen_info 000000018005c3fc     c1_RightInvariant_EKF.obj
 0004:00000408       $pdata$sf_c1_RightInvariant_EKF_jit_fallback_info 000000018005c408     c1_RightInvariant_EKF.obj
 0004:00000414       $pdata$sf_gateway_c1_RightInvariant_EKF 000000018005c414     c1_RightInvariant_EKF.obj
 0004:00000420       $pdata$sf_get_sim_state_info_c1_RightInvariant_EKF 000000018005c420     c1_RightInvariant_EKF.obj
 0004:0000042c       $pdata$sf_opaque_disable_c1_RightInvariant_EKF 000000018005c42c     c1_RightInvariant_EKF.obj
 0004:00000438       $pdata$sf_opaque_enable_c1_RightInvariant_EKF 000000018005c438     c1_RightInvariant_EKF.obj
 0004:00000444       $pdata$sf_opaque_get_sim_state_c1_RightInvariant_EKF 000000018005c444     c1_RightInvariant_EKF.obj
 0004:00000450       $pdata$sf_opaque_initialize_c1_RightInvariant_EKF 000000018005c450     c1_RightInvariant_EKF.obj
 0004:0000045c       $pdata$sf_opaque_set_sim_state_c1_RightInvariant_EKF 000000018005c45c     c1_RightInvariant_EKF.obj
 0004:00000468       $pdata$sf_opaque_terminate_c1_RightInvariant_EKF 000000018005c468     c1_RightInvariant_EKF.obj
 0004:00000474       $pdata$0$sf_opaque_terminate_c1_RightInvariant_EKF 000000018005c474     c1_RightInvariant_EKF.obj
 0004:00000480       $pdata$1$sf_opaque_terminate_c1_RightInvariant_EKF 000000018005c480     c1_RightInvariant_EKF.obj
 0004:0000048c       $pdata$c2_b_emlrt_marshallIn 000000018005c48c     c2_RightInvariant_EKF.obj
 0004:00000498       $pdata$c2_b_sf_marshallIn  000000018005c498     c2_RightInvariant_EKF.obj
 0004:000004a4       $pdata$c2_b_sf_marshallOut 000000018005c4a4     c2_RightInvariant_EKF.obj
 0004:000004b0       $pdata$c2_c_emlrt_marshallIn 000000018005c4b0     c2_RightInvariant_EKF.obj
 0004:000004bc       $pdata$c2_c_sf_marshallIn  000000018005c4bc     c2_RightInvariant_EKF.obj
 0004:000004c8       $pdata$c2_c_sf_marshallOut 000000018005c4c8     c2_RightInvariant_EKF.obj
 0004:000004d4       $pdata$c2_d_emlrt_marshallIn 000000018005c4d4     c2_RightInvariant_EKF.obj
 0004:000004e0       $pdata$c2_d_sf_marshallIn  000000018005c4e0     c2_RightInvariant_EKF.obj
 0004:000004ec       $pdata$c2_d_sf_marshallOut 000000018005c4ec     c2_RightInvariant_EKF.obj
 0004:000004f8       $pdata$c2_e_emlrt_marshallIn 000000018005c4f8     c2_RightInvariant_EKF.obj
 0004:00000504       $pdata$c2_e_sf_marshallIn  000000018005c504     c2_RightInvariant_EKF.obj
 0004:00000510       $pdata$c2_e_sf_marshallOut 000000018005c510     c2_RightInvariant_EKF.obj
 0004:0000051c       $pdata$c2_emlrt_marshallIn 000000018005c51c     c2_RightInvariant_EKF.obj
 0004:00000528       $pdata$c2_error            000000018005c528     c2_RightInvariant_EKF.obj
 0004:00000534       $pdata$c2_f_emlrt_marshallIn 000000018005c534     c2_RightInvariant_EKF.obj
 0004:00000540       $pdata$c2_f_sf_marshallIn  000000018005c540     c2_RightInvariant_EKF.obj
 0004:0000054c       $pdata$c2_f_sf_marshallOut 000000018005c54c     c2_RightInvariant_EKF.obj
 0004:00000558       $pdata$c2_g_emlrt_marshallIn 000000018005c558     c2_RightInvariant_EKF.obj
 0004:00000564       $pdata$c2_g_sf_marshallOut 000000018005c564     c2_RightInvariant_EKF.obj
 0004:00000570       $pdata$c2_i_emlrt_marshallIn 000000018005c570     c2_RightInvariant_EKF.obj
 0004:0000057c       $pdata$c2_j_emlrt_marshallIn 000000018005c57c     c2_RightInvariant_EKF.obj
 0004:00000588       $pdata$c2_sf_marshallIn    000000018005c588     c2_RightInvariant_EKF.obj
 0004:00000594       $pdata$c2_sf_marshallOut   000000018005c594     c2_RightInvariant_EKF.obj
 0004:000005a0       $pdata$chart_debug_initialization 000000018005c5a0     c2_RightInvariant_EKF.obj
 0004:000005ac       $pdata$3$chart_debug_initialization 000000018005c5ac     c2_RightInvariant_EKF.obj
 0004:000005b8       $pdata$4$chart_debug_initialization 000000018005c5b8     c2_RightInvariant_EKF.obj
 0004:000005c4       $pdata$chart_debug_initialize_data_addresses 000000018005c5c4     c2_RightInvariant_EKF.obj
 0004:000005d0       $pdata$0$chart_debug_initialize_data_addresses 000000018005c5d0     c2_RightInvariant_EKF.obj
 0004:000005dc       $pdata$1$chart_debug_initialize_data_addresses 000000018005c5dc     c2_RightInvariant_EKF.obj
 0004:000005e8       $pdata$disable_c2_RightInvariant_EKF 000000018005c5e8     c2_RightInvariant_EKF.obj
 0004:000005f4       $pdata$enable_c2_RightInvariant_EKF 000000018005c5f4     c2_RightInvariant_EKF.obj
 0004:00000600       $pdata$get_sim_state_c2_RightInvariant_EKF 000000018005c600     c2_RightInvariant_EKF.obj
 0004:0000060c       $pdata$init_script_number_translation 000000018005c60c     c2_RightInvariant_EKF.obj
 0004:00000618       $pdata$init_simulink_io_address 000000018005c618     c2_RightInvariant_EKF.obj
 0004:00000624       $pdata$initialize_c2_RightInvariant_EKF 000000018005c624     c2_RightInvariant_EKF.obj
 0004:00000630       $pdata$mdlProcessParameters_c2_RightInvariant_EKF 000000018005c630     c2_RightInvariant_EKF.obj
 0004:0000063c       $pdata$0$mdlProcessParameters_c2_RightInvariant_EKF 000000018005c63c     c2_RightInvariant_EKF.obj
 0004:00000648       $pdata$1$mdlProcessParameters_c2_RightInvariant_EKF 000000018005c648     c2_RightInvariant_EKF.obj
 0004:00000654       $pdata$2$mdlProcessParameters_c2_RightInvariant_EKF 000000018005c654     c2_RightInvariant_EKF.obj
 0004:00000660       $pdata$3$mdlProcessParameters_c2_RightInvariant_EKF 000000018005c660     c2_RightInvariant_EKF.obj
 0004:0000066c       $pdata$mdlRTW_c2_RightInvariant_EKF 000000018005c66c     c2_RightInvariant_EKF.obj
 0004:00000678       $pdata$mdlSetWorkWidths_c2_RightInvariant_EKF 000000018005c678     c2_RightInvariant_EKF.obj
 0004:00000684       $pdata$2$mdlSetWorkWidths_c2_RightInvariant_EKF 000000018005c684     c2_RightInvariant_EKF.obj
 0004:00000690       $pdata$3$mdlSetWorkWidths_c2_RightInvariant_EKF 000000018005c690     c2_RightInvariant_EKF.obj
 0004:0000069c       $pdata$4$mdlSetWorkWidths_c2_RightInvariant_EKF 000000018005c69c     c2_RightInvariant_EKF.obj
 0004:000006a8       $pdata$mdlStart_c2_RightInvariant_EKF 000000018005c6a8     c2_RightInvariant_EKF.obj
 0004:000006b4       $pdata$set_sim_state_c2_RightInvariant_EKF 000000018005c6b4     c2_RightInvariant_EKF.obj
 0004:000006c0       $pdata$sf_c2_RightInvariant_EKF_get_autoinheritance_info 000000018005c6c0     c2_RightInvariant_EKF.obj
 0004:000006cc       $pdata$sf_c2_RightInvariant_EKF_get_check_sum 000000018005c6cc     c2_RightInvariant_EKF.obj
 0004:000006d8       $pdata$sf_c2_RightInvariant_EKF_get_eml_resolved_functions_info 000000018005c6d8     c2_RightInvariant_EKF.obj
 0004:000006e4       $pdata$sf_c2_RightInvariant_EKF_get_post_codegen_info 000000018005c6e4     c2_RightInvariant_EKF.obj
 0004:000006f0       $pdata$sf_c2_RightInvariant_EKF_jit_fallback_info 000000018005c6f0     c2_RightInvariant_EKF.obj
 0004:000006fc       $pdata$sf_gateway_c2_RightInvariant_EKF 000000018005c6fc     c2_RightInvariant_EKF.obj
 0004:00000708       $pdata$sf_get_sim_state_info_c2_RightInvariant_EKF 000000018005c708     c2_RightInvariant_EKF.obj
 0004:00000714       $pdata$sf_opaque_disable_c2_RightInvariant_EKF 000000018005c714     c2_RightInvariant_EKF.obj
 0004:00000720       $pdata$sf_opaque_enable_c2_RightInvariant_EKF 000000018005c720     c2_RightInvariant_EKF.obj
 0004:0000072c       $pdata$sf_opaque_get_sim_state_c2_RightInvariant_EKF 000000018005c72c     c2_RightInvariant_EKF.obj
 0004:00000738       $pdata$sf_opaque_initialize_c2_RightInvariant_EKF 000000018005c738     c2_RightInvariant_EKF.obj
 0004:00000744       $pdata$sf_opaque_set_sim_state_c2_RightInvariant_EKF 000000018005c744     c2_RightInvariant_EKF.obj
 0004:00000750       $pdata$sf_opaque_terminate_c2_RightInvariant_EKF 000000018005c750     c2_RightInvariant_EKF.obj
 0004:0000075c       $pdata$0$sf_opaque_terminate_c2_RightInvariant_EKF 000000018005c75c     c2_RightInvariant_EKF.obj
 0004:00000768       $pdata$1$sf_opaque_terminate_c2_RightInvariant_EKF 000000018005c768     c2_RightInvariant_EKF.obj
 0004:00000774       $pdata$c40_b_emlrt_marshallIn 000000018005c774     c40_RightInvariant_EKF.obj
 0004:00000780       $pdata$c40_b_sf_marshallIn 000000018005c780     c40_RightInvariant_EKF.obj
 0004:0000078c       $pdata$c40_b_sf_marshallOut 000000018005c78c     c40_RightInvariant_EKF.obj
 0004:00000798       $pdata$c40_c_emlrt_marshallIn 000000018005c798     c40_RightInvariant_EKF.obj
 0004:000007a4       $pdata$c40_c_sf_marshallIn 000000018005c7a4     c40_RightInvariant_EKF.obj
 0004:000007b0       $pdata$c40_c_sf_marshallOut 000000018005c7b0     c40_RightInvariant_EKF.obj
 0004:000007bc       $pdata$c40_chartstep_c40_RightInvariant_EKF 000000018005c7bc     c40_RightInvariant_EKF.obj
 0004:000007c8       $pdata$1$c40_chartstep_c40_RightInvariant_EKF 000000018005c7c8     c40_RightInvariant_EKF.obj
 0004:000007d4       $pdata$2$c40_chartstep_c40_RightInvariant_EKF 000000018005c7d4     c40_RightInvariant_EKF.obj
 0004:000007e0       $pdata$4$c40_chartstep_c40_RightInvariant_EKF 000000018005c7e0     c40_RightInvariant_EKF.obj
 0004:000007ec       $pdata$9$c40_chartstep_c40_RightInvariant_EKF 000000018005c7ec     c40_RightInvariant_EKF.obj
 0004:000007f8       $pdata$10$c40_chartstep_c40_RightInvariant_EKF 000000018005c7f8     c40_RightInvariant_EKF.obj
 0004:00000804       $pdata$c40_d_emlrt_marshallIn 000000018005c804     c40_RightInvariant_EKF.obj
 0004:00000810       $pdata$c40_d_sf_marshallIn 000000018005c810     c40_RightInvariant_EKF.obj
 0004:0000081c       $pdata$c40_d_sf_marshallOut 000000018005c81c     c40_RightInvariant_EKF.obj
 0004:00000828       $pdata$c40_e_emlrt_marshallIn 000000018005c828     c40_RightInvariant_EKF.obj
 0004:00000834       $pdata$c40_e_sf_marshallIn 000000018005c834     c40_RightInvariant_EKF.obj
 0004:00000840       $pdata$c40_e_sf_marshallOut 000000018005c840     c40_RightInvariant_EKF.obj
 0004:0000084c       $pdata$c40_emlrt_marshallIn 000000018005c84c     c40_RightInvariant_EKF.obj
 0004:00000858       $pdata$c40_error           000000018005c858     c40_RightInvariant_EKF.obj
 0004:00000864       $pdata$c40_f_emlrt_marshallIn 000000018005c864     c40_RightInvariant_EKF.obj
 0004:00000870       $pdata$c40_f_sf_marshallIn 000000018005c870     c40_RightInvariant_EKF.obj
 0004:0000087c       $pdata$c40_f_sf_marshallOut 000000018005c87c     c40_RightInvariant_EKF.obj
 0004:00000888       $pdata$c40_g_emlrt_marshallIn 000000018005c888     c40_RightInvariant_EKF.obj
 0004:00000894       $pdata$c40_g_sf_marshallOut 000000018005c894     c40_RightInvariant_EKF.obj
 0004:000008a0       $pdata$c40_h_emlrt_marshallIn 000000018005c8a0     c40_RightInvariant_EKF.obj
 0004:000008ac       $pdata$c40_h_sf_marshallOut 000000018005c8ac     c40_RightInvariant_EKF.obj
 0004:000008b8       $pdata$c40_i_emlrt_marshallIn 000000018005c8b8     c40_RightInvariant_EKF.obj
 0004:000008c4       $pdata$c40_i_sf_marshallOut 000000018005c8c4     c40_RightInvariant_EKF.obj
 0004:000008d0       $pdata$c40_k_emlrt_marshallIn 000000018005c8d0     c40_RightInvariant_EKF.obj
 0004:000008dc       $pdata$c40_l_emlrt_marshallIn 000000018005c8dc     c40_RightInvariant_EKF.obj
 0004:000008e8       $pdata$c40_sf_marshallIn   000000018005c8e8     c40_RightInvariant_EKF.obj
 0004:000008f4       $pdata$c40_sf_marshallOut  000000018005c8f4     c40_RightInvariant_EKF.obj
 0004:00000900       $pdata$chart_debug_initialization 000000018005c900     c40_RightInvariant_EKF.obj
 0004:0000090c       $pdata$6$chart_debug_initialization 000000018005c90c     c40_RightInvariant_EKF.obj
 0004:00000918       $pdata$7$chart_debug_initialization 000000018005c918     c40_RightInvariant_EKF.obj
 0004:00000924       $pdata$chart_debug_initialize_data_addresses 000000018005c924     c40_RightInvariant_EKF.obj
 0004:00000930       $pdata$0$chart_debug_initialize_data_addresses 000000018005c930     c40_RightInvariant_EKF.obj
 0004:0000093c       $pdata$1$chart_debug_initialize_data_addresses 000000018005c93c     c40_RightInvariant_EKF.obj
 0004:00000948       $pdata$disable_c40_RightInvariant_EKF 000000018005c948     c40_RightInvariant_EKF.obj
 0004:00000954       $pdata$enable_c40_RightInvariant_EKF 000000018005c954     c40_RightInvariant_EKF.obj
 0004:00000960       $pdata$get_sim_state_c40_RightInvariant_EKF 000000018005c960     c40_RightInvariant_EKF.obj
 0004:0000096c       $pdata$init_script_number_translation 000000018005c96c     c40_RightInvariant_EKF.obj
 0004:00000978       $pdata$init_simulink_io_address 000000018005c978     c40_RightInvariant_EKF.obj
 0004:00000984       $pdata$initialize_c40_RightInvariant_EKF 000000018005c984     c40_RightInvariant_EKF.obj
 0004:00000990       $pdata$mdlProcessParameters_c40_RightInvariant_EKF 000000018005c990     c40_RightInvariant_EKF.obj
 0004:0000099c       $pdata$0$mdlProcessParameters_c40_RightInvariant_EKF 000000018005c99c     c40_RightInvariant_EKF.obj
 0004:000009a8       $pdata$1$mdlProcessParameters_c40_RightInvariant_EKF 000000018005c9a8     c40_RightInvariant_EKF.obj
 0004:000009b4       $pdata$2$mdlProcessParameters_c40_RightInvariant_EKF 000000018005c9b4     c40_RightInvariant_EKF.obj
 0004:000009c0       $pdata$3$mdlProcessParameters_c40_RightInvariant_EKF 000000018005c9c0     c40_RightInvariant_EKF.obj
 0004:000009cc       $pdata$mdlRTW_c40_RightInvariant_EKF 000000018005c9cc     c40_RightInvariant_EKF.obj
 0004:000009d8       $pdata$mdlSetWorkWidths_c40_RightInvariant_EKF 000000018005c9d8     c40_RightInvariant_EKF.obj
 0004:000009e4       $pdata$2$mdlSetWorkWidths_c40_RightInvariant_EKF 000000018005c9e4     c40_RightInvariant_EKF.obj
 0004:000009f0       $pdata$3$mdlSetWorkWidths_c40_RightInvariant_EKF 000000018005c9f0     c40_RightInvariant_EKF.obj
 0004:000009fc       $pdata$4$mdlSetWorkWidths_c40_RightInvariant_EKF 000000018005c9fc     c40_RightInvariant_EKF.obj
 0004:00000a08       $pdata$mdlStart_c40_RightInvariant_EKF 000000018005ca08     c40_RightInvariant_EKF.obj
 0004:00000a14       $pdata$set_sim_state_c40_RightInvariant_EKF 000000018005ca14     c40_RightInvariant_EKF.obj
 0004:00000a20       $pdata$sf_c40_RightInvariant_EKF_get_autoinheritance_info 000000018005ca20     c40_RightInvariant_EKF.obj
 0004:00000a2c       $pdata$sf_c40_RightInvariant_EKF_get_check_sum 000000018005ca2c     c40_RightInvariant_EKF.obj
 0004:00000a38       $pdata$sf_c40_RightInvariant_EKF_get_eml_resolved_functions_info 000000018005ca38     c40_RightInvariant_EKF.obj
 0004:00000a44       $pdata$sf_c40_RightInvariant_EKF_get_post_codegen_info 000000018005ca44     c40_RightInvariant_EKF.obj
 0004:00000a50       $pdata$sf_c40_RightInvariant_EKF_jit_fallback_info 000000018005ca50     c40_RightInvariant_EKF.obj
 0004:00000a5c       $pdata$sf_gateway_c40_RightInvariant_EKF 000000018005ca5c     c40_RightInvariant_EKF.obj
 0004:00000a68       $pdata$sf_get_sim_state_info_c40_RightInvariant_EKF 000000018005ca68     c40_RightInvariant_EKF.obj
 0004:00000a74       $pdata$sf_opaque_disable_c40_RightInvariant_EKF 000000018005ca74     c40_RightInvariant_EKF.obj
 0004:00000a80       $pdata$sf_opaque_enable_c40_RightInvariant_EKF 000000018005ca80     c40_RightInvariant_EKF.obj
 0004:00000a8c       $pdata$sf_opaque_get_sim_state_c40_RightInvariant_EKF 000000018005ca8c     c40_RightInvariant_EKF.obj
 0004:00000a98       $pdata$sf_opaque_initialize_c40_RightInvariant_EKF 000000018005ca98     c40_RightInvariant_EKF.obj
 0004:00000aa4       $pdata$sf_opaque_set_sim_state_c40_RightInvariant_EKF 000000018005caa4     c40_RightInvariant_EKF.obj
 0004:00000ab0       $pdata$sf_opaque_terminate_c40_RightInvariant_EKF 000000018005cab0     c40_RightInvariant_EKF.obj
 0004:00000abc       $pdata$0$sf_opaque_terminate_c40_RightInvariant_EKF 000000018005cabc     c40_RightInvariant_EKF.obj
 0004:00000ac8       $pdata$1$sf_opaque_terminate_c40_RightInvariant_EKF 000000018005cac8     c40_RightInvariant_EKF.obj
 0004:00000ad4       $pdata$ProcessMexSfunctionCmdLineCall 000000018005cad4     RightInvariant_EKF_sfun_registry.obj
 0004:00000ae0       $pdata$ProcessMexSfunctionEveryCall 000000018005cae0     RightInvariant_EKF_sfun_registry.obj
 0004:00000aec       $pdata$_CreateSimStruct    000000018005caec     RightInvariant_EKF_sfun_registry.obj
 0004:00000af8       $pdata$_ProcessMexSfunctionCmdLineCall 000000018005caf8     RightInvariant_EKF_sfun_registry.obj
 0004:00000b04       $pdata$_RegNumInputPortsCB 000000018005cb04     RightInvariant_EKF_sfun_registry.obj
 0004:00000b10       $pdata$_RegNumOutputPortsCB 000000018005cb10     RightInvariant_EKF_sfun_registry.obj
 0004:00000b1c       $pdata$_ssFatalError       000000018005cb1c     RightInvariant_EKF_sfun_registry.obj
 0004:00000b28       $pdata$_ssGetAbsTol        000000018005cb28     RightInvariant_EKF_sfun_registry.obj
 0004:00000b34       $pdata$_ssGetCallSystemNumFcnCallDestinations 000000018005cb34     RightInvariant_EKF_sfun_registry.obj
 0004:00000b40       $pdata$_ssGetCompInputPortSymbolicDimsId 000000018005cb40     RightInvariant_EKF_sfun_registry.obj
 0004:00000b4c       $pdata$_ssGetCompOutputPortSymbolicDimsId 000000018005cb4c     RightInvariant_EKF_sfun_registry.obj
 0004:00000b58       $pdata$_ssGetInputPortSignalFcn 000000018005cb58     RightInvariant_EKF_sfun_registry.obj
 0004:00000b64       $pdata$0$_ssGetInputPortSignalFcn 000000018005cb64     RightInvariant_EKF_sfun_registry.obj
 0004:00000b70       $pdata$2$_ssGetInputPortSignalFcn 000000018005cb70     RightInvariant_EKF_sfun_registry.obj
 0004:00000b7c       $pdata$3$_ssGetInputPortSignalFcn 000000018005cb7c     RightInvariant_EKF_sfun_registry.obj
 0004:00000b88       $pdata$_ssGetInputPortSignalPtrsFcn 000000018005cb88     RightInvariant_EKF_sfun_registry.obj
 0004:00000b94       $pdata$0$_ssGetInputPortSignalPtrsFcn 000000018005cb94     RightInvariant_EKF_sfun_registry.obj
 0004:00000ba0       $pdata$2$_ssGetInputPortSignalPtrsFcn 000000018005cba0     RightInvariant_EKF_sfun_registry.obj
 0004:00000bac       $pdata$3$_ssGetInputPortSignalPtrsFcn 000000018005cbac     RightInvariant_EKF_sfun_registry.obj
 0004:00000bb8       $pdata$_ssGetNumSymbolicDims 000000018005cbb8     RightInvariant_EKF_sfun_registry.obj
 0004:00000bc4       $pdata$_ssGetSymbolicDim   000000018005cbc4     RightInvariant_EKF_sfun_registry.obj
 0004:00000bd0       $pdata$_ssRegisterSymbolicDims 000000018005cbd0     RightInvariant_EKF_sfun_registry.obj
 0004:00000bdc       $pdata$_ssRegisterSymbolicDimsDivide 000000018005cbdc     RightInvariant_EKF_sfun_registry.obj
 0004:00000be8       $pdata$_ssRegisterSymbolicDimsExpr 000000018005cbe8     RightInvariant_EKF_sfun_registry.obj
 0004:00000bf4       $pdata$_ssRegisterSymbolicDimsIntValue 000000018005cbf4     RightInvariant_EKF_sfun_registry.obj
 0004:00000c00       $pdata$_ssRegisterSymbolicDimsMinus 000000018005cc00     RightInvariant_EKF_sfun_registry.obj
 0004:00000c0c       $pdata$_ssRegisterSymbolicDimsMultiply 000000018005cc0c     RightInvariant_EKF_sfun_registry.obj
 0004:00000c18       $pdata$_ssRegisterSymbolicDimsPlus 000000018005cc18     RightInvariant_EKF_sfun_registry.obj
 0004:00000c24       $pdata$_ssRegisterSymbolicDimsString 000000018005cc24     RightInvariant_EKF_sfun_registry.obj
 0004:00000c30       $pdata$_ssSetCompDWorkSymbolicDimsId 000000018005cc30     RightInvariant_EKF_sfun_registry.obj
 0004:00000c3c       $pdata$_ssSetCompInputPortSymbolicDimsId 000000018005cc3c     RightInvariant_EKF_sfun_registry.obj
 0004:00000c48       $pdata$_ssSetCompOutputPortSymbolicDimsId 000000018005cc48     RightInvariant_EKF_sfun_registry.obj
 0004:00000c54       $pdata$_ssSetInputPortDirectFeedThroughFcn 000000018005cc54     RightInvariant_EKF_sfun_registry.obj
 0004:00000c60       $pdata$_ssSetInputPortMatrixDimensions 000000018005cc60     RightInvariant_EKF_sfun_registry.obj
 0004:00000c6c       $pdata$_ssSetInputPortReusableFcn 000000018005cc6c     RightInvariant_EKF_sfun_registry.obj
 0004:00000c78       $pdata$_ssSetInputPortSymbolicDimsId 000000018005cc78     RightInvariant_EKF_sfun_registry.obj
 0004:00000c84       $pdata$_ssSetInputPortVectorDimension 000000018005cc84     RightInvariant_EKF_sfun_registry.obj
 0004:00000c90       $pdata$_ssSetOutputPortMatrixDimensions 000000018005cc90     RightInvariant_EKF_sfun_registry.obj
 0004:00000c9c       $pdata$_ssSetOutputPortReusableFcn 000000018005cc9c     RightInvariant_EKF_sfun_registry.obj
 0004:00000ca8       $pdata$_ssSetOutputPortSymbolicDimsId 000000018005cca8     RightInvariant_EKF_sfun_registry.obj
 0004:00000cb4       $pdata$_ssSetOutputPortVectorDimension 000000018005ccb4     RightInvariant_EKF_sfun_registry.obj
 0004:00000cc0       $pdata$_vsnprintf_l        000000018005ccc0     RightInvariant_EKF_sfun_registry.obj
 0004:00000ccc       $pdata$_vsprintf_l         000000018005cccc     RightInvariant_EKF_sfun_registry.obj
 0004:00000cd8       $pdata$mdlGetSimState      000000018005ccd8     RightInvariant_EKF_sfun_registry.obj
 0004:00000ce4       $pdata$mdlRTW              000000018005cce4     RightInvariant_EKF_sfun_registry.obj
 0004:00000cf0       $pdata$mdlSetSimState      000000018005ccf0     RightInvariant_EKF_sfun_registry.obj
 0004:00000cfc       $pdata$mdl_derivatives_processing 000000018005ccfc     RightInvariant_EKF_sfun_registry.obj
 0004:00000d08       $pdata$mdl_disable_processing 000000018005cd08     RightInvariant_EKF_sfun_registry.obj
 0004:00000d14       $pdata$mdl_enable_processing 000000018005cd14     RightInvariant_EKF_sfun_registry.obj
 0004:00000d20       $pdata$mdl_ext_mode_exec_processing 000000018005cd20     RightInvariant_EKF_sfun_registry.obj
 0004:00000d2c       $pdata$mdl_initialize_conditions_processing 000000018005cd2c     RightInvariant_EKF_sfun_registry.obj
 0004:00000d38       $pdata$mdl_outputs_continuous_legacy 000000018005cd38     RightInvariant_EKF_sfun_registry.obj
 0004:00000d44       $pdata$mdl_outputs_processing 000000018005cd44     RightInvariant_EKF_sfun_registry.obj
 0004:00000d50       $pdata$mdl_start_processing 000000018005cd50     RightInvariant_EKF_sfun_registry.obj
 0004:00000d5c       $pdata$mdl_terminate_processing 000000018005cd5c     RightInvariant_EKF_sfun_registry.obj
 0004:00000d68       $pdata$mdl_update_processing 000000018005cd68     RightInvariant_EKF_sfun_registry.obj
 0004:00000d74       $pdata$mdl_zeroCrossings_processing 000000018005cd74     RightInvariant_EKF_sfun_registry.obj
 0004:00000d80       $pdata$mexFunction         000000018005cd80     RightInvariant_EKF_sfun_registry.obj
 0004:00000d8c       $pdata$sf_debug_api_wrapper 000000018005cd8c     RightInvariant_EKF_sfun_registry.obj
 0004:00000d98       $pdata$sf_machine_global_initializer 000000018005cd98     RightInvariant_EKF_sfun_registry.obj
 0004:00000da4       $pdata$sf_machine_global_method_dispatcher 000000018005cda4     RightInvariant_EKF_sfun_registry.obj
 0004:00000db0       $pdata$sf_machine_global_terminator 000000018005cdb0     RightInvariant_EKF_sfun_registry.obj
 0004:00000dbc       $pdata$sf_mex_unlock_call  000000018005cdbc     RightInvariant_EKF_sfun_registry.obj
 0004:00000dc8       $pdata$sf_process_autoinheritance_call 000000018005cdc8     RightInvariant_EKF_sfun_registry.obj
 0004:00000dd4       $pdata$sf_process_check_sum_call 000000018005cdd4     RightInvariant_EKF_sfun_registry.obj
 0004:00000de0       $pdata$sf_process_get_eml_resolved_functions_info_call 000000018005cde0     RightInvariant_EKF_sfun_registry.obj
 0004:00000dec       $pdata$sf_process_get_jit_fallback_info_call 000000018005cdec     RightInvariant_EKF_sfun_registry.obj
 0004:00000df8       $pdata$sf_process_get_third_party_uses_info_call 000000018005cdf8     RightInvariant_EKF_sfun_registry.obj
 0004:00000e04       $pdata$sf_process_get_updateBuildInfo_args_info_call 000000018005ce04     RightInvariant_EKF_sfun_registry.obj
 0004:00000e10       $pdata$sf_register_machine_exported_symbols 000000018005ce10     RightInvariant_EKF_sfun_registry.obj
 0004:00000e1c       $pdata$sprintf             000000018005ce1c     RightInvariant_EKF_sfun_registry.obj
 0004:00000e28       $pdata$ssCloneAndAddZcSignalInfo 000000018005ce28     RightInvariant_EKF_sfun_registry.obj
 0004:00000e34       $pdata$ssCreateAndAddZcSignalInfo 000000018005ce34     RightInvariant_EKF_sfun_registry.obj
 0004:00000e40       $pdata$ssGetDTypeIdFromMxArray 000000018005ce40     RightInvariant_EKF_sfun_registry.obj
 0004:00000e4c       $pdata$ssGetIsInputPortElementContinuous 000000018005ce4c     RightInvariant_EKF_sfun_registry.obj
 0004:00000e58       $pdata$ssGetIsZeroCrossControlDisabled 000000018005ce58     RightInvariant_EKF_sfun_registry.obj
 0004:00000e64       $pdata$ssGetNumZcSignals   000000018005ce64     RightInvariant_EKF_sfun_registry.obj
 0004:00000e70       $pdata$ssGetParameterTuningCompliance 000000018005ce70     RightInvariant_EKF_sfun_registry.obj
 0004:00000e7c       $pdata$ssGetSFuncBlockHandle 000000018005ce7c     RightInvariant_EKF_sfun_registry.obj
 0004:00000e88       $pdata$ssGetZcSignalIsZcElementDisc 000000018005ce88     RightInvariant_EKF_sfun_registry.obj
 0004:00000e94       $pdata$ssGetZcSignalName   000000018005ce94     RightInvariant_EKF_sfun_registry.obj
 0004:00000ea0       $pdata$ssGetZcSignalNeedsEventNotification 000000018005cea0     RightInvariant_EKF_sfun_registry.obj
 0004:00000eac       $pdata$ssGetZcSignalType   000000018005ceac     RightInvariant_EKF_sfun_registry.obj
 0004:00000eb8       $pdata$ssGetZcSignalVector 000000018005ceb8     RightInvariant_EKF_sfun_registry.obj
 0004:00000ec4       $pdata$ssGetZcSignalWidth  000000018005cec4     RightInvariant_EKF_sfun_registry.obj
 0004:00000ed0       $pdata$ssGetZcSignalZcEventType 000000018005ced0     RightInvariant_EKF_sfun_registry.obj
 0004:00000edc       $pdata$ssGetZcSignalZcEvents 000000018005cedc     RightInvariant_EKF_sfun_registry.obj
 0004:00000ee8       $pdata$ssGetZcSignalZcTol  000000018005cee8     RightInvariant_EKF_sfun_registry.obj
 0004:00000ef4       $pdata$ssIsRunTimeParamTunable 000000018005cef4     RightInvariant_EKF_sfun_registry.obj
 0004:00000f00       $pdata$ssSetIsInputPortUsedForContZcSignal 000000018005cf00     RightInvariant_EKF_sfun_registry.obj
 0004:00000f0c       $pdata$ssSetZcSignalIsZcElementDisc 000000018005cf0c     RightInvariant_EKF_sfun_registry.obj
 0004:00000f18       $pdata$ssSetZcSignalNeedsEventNotification 000000018005cf18     RightInvariant_EKF_sfun_registry.obj
 0004:00000f24       $pdata$ssSetZcSignalType   000000018005cf24     RightInvariant_EKF_sfun_registry.obj
 0004:00000f30       $pdata$ssSetZcSignalWidth  000000018005cf30     RightInvariant_EKF_sfun_registry.obj
 0004:00000f3c       $pdata$ssSetZcSignalZcEventType 000000018005cf3c     RightInvariant_EKF_sfun_registry.obj
 0004:00000f48       $pdata$ssSetZcSignalZcTol  000000018005cf48     RightInvariant_EKF_sfun_registry.obj
 0004:00000f54       $pdata$ssWarning           000000018005cf54     RightInvariant_EKF_sfun_registry.obj
 0004:00000f60       $pdata$ssWriteRTWMx2dMatParam 000000018005cf60     RightInvariant_EKF_sfun_registry.obj
 0004:00000f6c       $pdata$ssWriteRTWMxVectParam 000000018005cf6c     RightInvariant_EKF_sfun_registry.obj
 0004:00000f78       $pdata$ssWriteRTWNameValuePair 000000018005cf78     RightInvariant_EKF_sfun_registry.obj
 0004:00000f84       $pdata$0$ssWriteRTWNameValuePair 000000018005cf84     RightInvariant_EKF_sfun_registry.obj
 0004:00000f90       $pdata$1$ssWriteRTWNameValuePair 000000018005cf90     RightInvariant_EKF_sfun_registry.obj
 0004:00000f9c       $pdata$ssWriteRTWParamSettings 000000018005cf9c     RightInvariant_EKF_sfun_registry.obj
 0004:00000fa8       $pdata$1$ssWriteRTWParamSettings 000000018005cfa8     RightInvariant_EKF_sfun_registry.obj
 0004:00000fb4       $pdata$2$ssWriteRTWParamSettings 000000018005cfb4     RightInvariant_EKF_sfun_registry.obj
 0004:00000fc0       $pdata$3$ssWriteRTWParamSettings 000000018005cfc0     RightInvariant_EKF_sfun_registry.obj
 0004:00000fcc       $pdata$ssWriteRTWParameters 000000018005cfcc     RightInvariant_EKF_sfun_registry.obj
 0004:00000fd8       $pdata$1$ssWriteRTWParameters 000000018005cfd8     RightInvariant_EKF_sfun_registry.obj
 0004:00000fe4       $pdata$2$ssWriteRTWParameters 000000018005cfe4     RightInvariant_EKF_sfun_registry.obj
 0004:00000ff0       $pdata$3$ssWriteRTWParameters 000000018005cff0     RightInvariant_EKF_sfun_registry.obj
 0004:00000ffc       $pdata$4$ssWriteRTWParameters 000000018005cffc     RightInvariant_EKF_sfun_registry.obj
 0004:00001008       $pdata$ssWriteRTWWorkVect  000000018005d008     RightInvariant_EKF_sfun_registry.obj
 0004:00001014       $pdata$output1             000000018005d014     p_RightToeBottom_src.obj
 0004:00001020       $pdata$output1             000000018005d020     p_LeftToeBottom_src.obj
 0004:0000102c       $pdata$output1             000000018005d02c     J_RightToeBottom_src.obj
 0004:00001038       $pdata$output1             000000018005d038     J_LeftToeBottom_src.obj
 0004:00001044       $pdata$output1             000000018005d044     p_VectorNav_to_RightToeBottom_src.obj
 0004:00001050       $pdata$output1             000000018005d050     R_VectorNav_to_RightToeBottom_src.obj
 0004:0000105c       $pdata$output1             000000018005d05c     p_VectorNav_to_LeftToeBottom_src.obj
 0004:00001068       $pdata$output1             000000018005d068     R_VectorNav_to_LeftToeBottom_src.obj
 0004:00001074       $pdata$output1             000000018005d074     J_VectorNav_to_RightToeBottom_src.obj
 0004:00001080       $pdata$output1             000000018005d080     J_VectorNav_to_LeftToeBottom_src.obj
 0004:0000108c       $pdata$StateEstimation_debug_initialize 000000018005d08c     StateEstimation_sfun:StateEstimation_sfun.obj
 0004:00001098       $pdata$load_StateEstimation_optimization_info 000000018005d098     StateEstimation_sfun:StateEstimation_sfun.obj
 0004:000010a4       $pdata$sf_StateEstimation_autoinheritance_info 000000018005d0a4     StateEstimation_sfun:StateEstimation_sfun.obj
 0004:000010b0       $pdata$sf_StateEstimation_get_eml_resolved_functions_info 000000018005d0b0     StateEstimation_sfun:StateEstimation_sfun.obj
 0004:000010bc       $pdata$sf_StateEstimation_jit_fallback_info 000000018005d0bc     StateEstimation_sfun:StateEstimation_sfun.obj
 0004:000010c8       $pdata$sf_StateEstimation_method_dispatcher 000000018005d0c8     StateEstimation_sfun:StateEstimation_sfun.obj
 0004:000010d4       $pdata$sf_StateEstimation_process_check_sum_call 000000018005d0d4     StateEstimation_sfun:StateEstimation_sfun.obj
 0004:000010e0       $pdata$0$sf_StateEstimation_process_check_sum_call 000000018005d0e0     StateEstimation_sfun:StateEstimation_sfun.obj
 0004:000010ec       $pdata$1$sf_StateEstimation_process_check_sum_call 000000018005d0ec     StateEstimation_sfun:StateEstimation_sfun.obj
 0004:000010f8       $pdata$sf_StateEstimation_third_party_uses_info 000000018005d0f8     StateEstimation_sfun:StateEstimation_sfun.obj
 0004:00001104       $pdata$sf_StateEstimation_updateBuildInfo_args_info 000000018005d104     StateEstimation_sfun:StateEstimation_sfun.obj
 0004:00001110       $pdata$unload_StateEstimation_optimization_info 000000018005d110     StateEstimation_sfun:StateEstimation_sfun.obj
 0004:0000111c       $pdata$c21_b_emlrt_marshallIn 000000018005d11c     StateEstimation_sfun:c21_StateEstimation.obj
 0004:00001128       $pdata$c21_b_sf_marshallIn 000000018005d128     StateEstimation_sfun:c21_StateEstimation.obj
 0004:00001134       $pdata$c21_b_sf_marshallOut 000000018005d134     StateEstimation_sfun:c21_StateEstimation.obj
 0004:00001140       $pdata$c21_c_emlrt_marshallIn 000000018005d140     StateEstimation_sfun:c21_StateEstimation.obj
 0004:0000114c       $pdata$c21_c_sf_marshallIn 000000018005d14c     StateEstimation_sfun:c21_StateEstimation.obj
 0004:00001158       $pdata$c21_c_sf_marshallOut 000000018005d158     StateEstimation_sfun:c21_StateEstimation.obj
 0004:00001164       $pdata$c21_d_emlrt_marshallIn 000000018005d164     StateEstimation_sfun:c21_StateEstimation.obj
 0004:00001170       $pdata$c21_d_sf_marshallIn 000000018005d170     StateEstimation_sfun:c21_StateEstimation.obj
 0004:0000117c       $pdata$c21_d_sf_marshallOut 000000018005d17c     StateEstimation_sfun:c21_StateEstimation.obj
 0004:00001188       $pdata$c21_e_emlrt_marshallIn 000000018005d188     StateEstimation_sfun:c21_StateEstimation.obj
 0004:00001194       $pdata$c21_e_sf_marshallIn 000000018005d194     StateEstimation_sfun:c21_StateEstimation.obj
 0004:000011a0       $pdata$c21_e_sf_marshallOut 000000018005d1a0     StateEstimation_sfun:c21_StateEstimation.obj
 0004:000011ac       $pdata$c21_emlrt_marshallIn 000000018005d1ac     StateEstimation_sfun:c21_StateEstimation.obj
 0004:000011b8       $pdata$c21_f_emlrt_marshallIn 000000018005d1b8     StateEstimation_sfun:c21_StateEstimation.obj
 0004:000011c4       $pdata$c21_f_sf_marshallOut 000000018005d1c4     StateEstimation_sfun:c21_StateEstimation.obj
 0004:000011d0       $pdata$c21_h_emlrt_marshallIn 000000018005d1d0     StateEstimation_sfun:c21_StateEstimation.obj
 0004:000011dc       $pdata$c21_i_emlrt_marshallIn 000000018005d1dc     StateEstimation_sfun:c21_StateEstimation.obj
 0004:000011e8       $pdata$c21_sf_marshallIn   000000018005d1e8     StateEstimation_sfun:c21_StateEstimation.obj
 0004:000011f4       $pdata$c21_sf_marshallOut  000000018005d1f4     StateEstimation_sfun:c21_StateEstimation.obj
 0004:00001200       $pdata$chart_debug_initialization 000000018005d200     StateEstimation_sfun:c21_StateEstimation.obj
 0004:0000120c       $pdata$4$chart_debug_initialization 000000018005d20c     StateEstimation_sfun:c21_StateEstimation.obj
 0004:00001218       $pdata$5$chart_debug_initialization 000000018005d218     StateEstimation_sfun:c21_StateEstimation.obj
 0004:00001224       $pdata$chart_debug_initialize_data_addresses 000000018005d224     StateEstimation_sfun:c21_StateEstimation.obj
 0004:00001230       $pdata$0$chart_debug_initialize_data_addresses 000000018005d230     StateEstimation_sfun:c21_StateEstimation.obj
 0004:0000123c       $pdata$1$chart_debug_initialize_data_addresses 000000018005d23c     StateEstimation_sfun:c21_StateEstimation.obj
 0004:00001248       $pdata$disable_c21_StateEstimation 000000018005d248     StateEstimation_sfun:c21_StateEstimation.obj
 0004:00001254       $pdata$enable_c21_StateEstimation 000000018005d254     StateEstimation_sfun:c21_StateEstimation.obj
 0004:00001260       $pdata$get_sim_state_c21_StateEstimation 000000018005d260     StateEstimation_sfun:c21_StateEstimation.obj
 0004:0000126c       $pdata$init_script_number_translation 000000018005d26c     StateEstimation_sfun:c21_StateEstimation.obj
 0004:00001278       $pdata$init_simulink_io_address 000000018005d278     StateEstimation_sfun:c21_StateEstimation.obj
 0004:00001284       $pdata$initialize_c21_StateEstimation 000000018005d284     StateEstimation_sfun:c21_StateEstimation.obj
 0004:00001290       $pdata$mdlProcessParameters_c21_StateEstimation 000000018005d290     StateEstimation_sfun:c21_StateEstimation.obj
 0004:0000129c       $pdata$0$mdlProcessParameters_c21_StateEstimation 000000018005d29c     StateEstimation_sfun:c21_StateEstimation.obj
 0004:000012a8       $pdata$1$mdlProcessParameters_c21_StateEstimation 000000018005d2a8     StateEstimation_sfun:c21_StateEstimation.obj
 0004:000012b4       $pdata$2$mdlProcessParameters_c21_StateEstimation 000000018005d2b4     StateEstimation_sfun:c21_StateEstimation.obj
 0004:000012c0       $pdata$3$mdlProcessParameters_c21_StateEstimation 000000018005d2c0     StateEstimation_sfun:c21_StateEstimation.obj
 0004:000012cc       $pdata$mdlRTW_c21_StateEstimation 000000018005d2cc     StateEstimation_sfun:c21_StateEstimation.obj
 0004:000012d8       $pdata$mdlSetWorkWidths_c21_StateEstimation 000000018005d2d8     StateEstimation_sfun:c21_StateEstimation.obj
 0004:000012e4       $pdata$2$mdlSetWorkWidths_c21_StateEstimation 000000018005d2e4     StateEstimation_sfun:c21_StateEstimation.obj
 0004:000012f0       $pdata$3$mdlSetWorkWidths_c21_StateEstimation 000000018005d2f0     StateEstimation_sfun:c21_StateEstimation.obj
 0004:000012fc       $pdata$4$mdlSetWorkWidths_c21_StateEstimation 000000018005d2fc     StateEstimation_sfun:c21_StateEstimation.obj
 0004:00001308       $pdata$mdlStart_c21_StateEstimation 000000018005d308     StateEstimation_sfun:c21_StateEstimation.obj
 0004:00001314       $pdata$set_sim_state_c21_StateEstimation 000000018005d314     StateEstimation_sfun:c21_StateEstimation.obj
 0004:00001320       $pdata$sf_c21_StateEstimation_get_autoinheritance_info 000000018005d320     StateEstimation_sfun:c21_StateEstimation.obj
 0004:0000132c       $pdata$sf_c21_StateEstimation_get_check_sum 000000018005d32c     StateEstimation_sfun:c21_StateEstimation.obj
 0004:00001338       $pdata$sf_c21_StateEstimation_get_eml_resolved_functions_info 000000018005d338     StateEstimation_sfun:c21_StateEstimation.obj
 0004:00001344       $pdata$sf_c21_StateEstimation_get_post_codegen_info 000000018005d344     StateEstimation_sfun:c21_StateEstimation.obj
 0004:00001350       $pdata$sf_c21_StateEstimation_jit_fallback_info 000000018005d350     StateEstimation_sfun:c21_StateEstimation.obj
 0004:0000135c       $pdata$sf_gateway_c21_StateEstimation 000000018005d35c     StateEstimation_sfun:c21_StateEstimation.obj
 0004:00001368       $pdata$3$sf_gateway_c21_StateEstimation 000000018005d368     StateEstimation_sfun:c21_StateEstimation.obj
 0004:00001374       $pdata$5$sf_gateway_c21_StateEstimation 000000018005d374     StateEstimation_sfun:c21_StateEstimation.obj
 0004:00001380       $pdata$6$sf_gateway_c21_StateEstimation 000000018005d380     StateEstimation_sfun:c21_StateEstimation.obj
 0004:0000138c       $pdata$sf_get_sim_state_info_c21_StateEstimation 000000018005d38c     StateEstimation_sfun:c21_StateEstimation.obj
 0004:00001398       $pdata$sf_opaque_disable_c21_StateEstimation 000000018005d398     StateEstimation_sfun:c21_StateEstimation.obj
 0004:000013a4       $pdata$sf_opaque_enable_c21_StateEstimation 000000018005d3a4     StateEstimation_sfun:c21_StateEstimation.obj
 0004:000013b0       $pdata$sf_opaque_get_sim_state_c21_StateEstimation 000000018005d3b0     StateEstimation_sfun:c21_StateEstimation.obj
 0004:000013bc       $pdata$sf_opaque_initialize_c21_StateEstimation 000000018005d3bc     StateEstimation_sfun:c21_StateEstimation.obj
 0004:000013c8       $pdata$sf_opaque_set_sim_state_c21_StateEstimation 000000018005d3c8     StateEstimation_sfun:c21_StateEstimation.obj
 0004:000013d4       $pdata$sf_opaque_terminate_c21_StateEstimation 000000018005d3d4     StateEstimation_sfun:c21_StateEstimation.obj
 0004:000013e0       $pdata$0$sf_opaque_terminate_c21_StateEstimation 000000018005d3e0     StateEstimation_sfun:c21_StateEstimation.obj
 0004:000013ec       $pdata$1$sf_opaque_terminate_c21_StateEstimation 000000018005d3ec     StateEstimation_sfun:c21_StateEstimation.obj
 0004:000013f8       $pdata$c41_Rotation_to_Quaternion 000000018005d3f8     StateEstimation_sfun:c41_StateEstimation.obj
 0004:00001404       $pdata$c41_abs             000000018005d404     StateEstimation_sfun:c41_StateEstimation.obj
 0004:00001410       $pdata$c41_b_emlrt_marshallIn 000000018005d410     StateEstimation_sfun:c41_StateEstimation.obj
 0004:0000141c       $pdata$c41_b_error         000000018005d41c     StateEstimation_sfun:c41_StateEstimation.obj
 0004:00001428       $pdata$c41_b_sf_marshallIn 000000018005d428     StateEstimation_sfun:c41_StateEstimation.obj
 0004:00001434       $pdata$c41_b_sf_marshallOut 000000018005d434     StateEstimation_sfun:c41_StateEstimation.obj
 0004:00001440       $pdata$c41_c_emlrt_marshallIn 000000018005d440     StateEstimation_sfun:c41_StateEstimation.obj
 0004:0000144c       $pdata$c41_c_error         000000018005d44c     StateEstimation_sfun:c41_StateEstimation.obj
 0004:00001458       $pdata$c41_c_sf_marshallIn 000000018005d458     StateEstimation_sfun:c41_StateEstimation.obj
 0004:00001464       $pdata$c41_c_sf_marshallOut 000000018005d464     StateEstimation_sfun:c41_StateEstimation.obj
 0004:00001470       $pdata$c41_chartstep_c41_StateEstimation 000000018005d470     StateEstimation_sfun:c41_StateEstimation.obj
 0004:0000147c       $pdata$c41_check_forloop_overflow_error 000000018005d47c     StateEstimation_sfun:c41_StateEstimation.obj
 0004:00001488       $pdata$c41_d_emlrt_marshallIn 000000018005d488     StateEstimation_sfun:c41_StateEstimation.obj
 0004:00001494       $pdata$c41_d_sf_marshallIn 000000018005d494     StateEstimation_sfun:c41_StateEstimation.obj
 0004:000014a0       $pdata$c41_d_sf_marshallOut 000000018005d4a0     StateEstimation_sfun:c41_StateEstimation.obj
 0004:000014ac       $pdata$c41_e_emlrt_marshallIn 000000018005d4ac     StateEstimation_sfun:c41_StateEstimation.obj
 0004:000014b8       $pdata$c41_e_sf_marshallIn 000000018005d4b8     StateEstimation_sfun:c41_StateEstimation.obj
 0004:000014c4       $pdata$c41_e_sf_marshallOut 000000018005d4c4     StateEstimation_sfun:c41_StateEstimation.obj
 0004:000014d0       $pdata$c41_emlrt_marshallIn 000000018005d4d0     StateEstimation_sfun:c41_StateEstimation.obj
 0004:000014dc       $pdata$c41_error           000000018005d4dc     StateEstimation_sfun:c41_StateEstimation.obj
 0004:000014e8       $pdata$c41_f_emlrt_marshallIn 000000018005d4e8     StateEstimation_sfun:c41_StateEstimation.obj
 0004:000014f4       $pdata$c41_f_sf_marshallIn 000000018005d4f4     StateEstimation_sfun:c41_StateEstimation.obj
 0004:00001500       $pdata$c41_f_sf_marshallOut 000000018005d500     StateEstimation_sfun:c41_StateEstimation.obj
 0004:0000150c       $pdata$c41_g_emlrt_marshallIn 000000018005d50c     StateEstimation_sfun:c41_StateEstimation.obj
 0004:00001518       $pdata$c41_g_sf_marshallIn 000000018005d518     StateEstimation_sfun:c41_StateEstimation.obj
 0004:00001524       $pdata$c41_g_sf_marshallOut 000000018005d524     StateEstimation_sfun:c41_StateEstimation.obj
 0004:00001530       $pdata$c41_h_emlrt_marshallIn 000000018005d530     StateEstimation_sfun:c41_StateEstimation.obj
 0004:0000153c       $pdata$c41_h_sf_marshallIn 000000018005d53c     StateEstimation_sfun:c41_StateEstimation.obj
 0004:00001548       $pdata$c41_h_sf_marshallOut 000000018005d548     StateEstimation_sfun:c41_StateEstimation.obj
 0004:00001554       $pdata$c41_i_emlrt_marshallIn 000000018005d554     StateEstimation_sfun:c41_StateEstimation.obj
 0004:00001560       $pdata$c41_i_sf_marshallOut 000000018005d560     StateEstimation_sfun:c41_StateEstimation.obj
 0004:0000156c       $pdata$c41_j_emlrt_marshallIn 000000018005d56c     StateEstimation_sfun:c41_StateEstimation.obj
 0004:00001578       $pdata$c41_k_emlrt_marshallIn 000000018005d578     StateEstimation_sfun:c41_StateEstimation.obj
 0004:00001584       $pdata$c41_m_emlrt_marshallIn 000000018005d584     StateEstimation_sfun:c41_StateEstimation.obj
 0004:00001590       $pdata$c41_n_emlrt_marshallIn 000000018005d590     StateEstimation_sfun:c41_StateEstimation.obj
 0004:0000159c       $pdata$c41_outputs_bus_io  000000018005d59c     StateEstimation_sfun:c41_StateEstimation.obj
 0004:000015a8       $pdata$c41_sf_marshallIn   000000018005d5a8     StateEstimation_sfun:c41_StateEstimation.obj
 0004:000015b4       $pdata$c41_sf_marshallOut  000000018005d5b4     StateEstimation_sfun:c41_StateEstimation.obj
 0004:000015c0       $pdata$chart_debug_initialization 000000018005d5c0     StateEstimation_sfun:c41_StateEstimation.obj
 0004:000015cc       $pdata$4$chart_debug_initialization 000000018005d5cc     StateEstimation_sfun:c41_StateEstimation.obj
 0004:000015d8       $pdata$5$chart_debug_initialization 000000018005d5d8     StateEstimation_sfun:c41_StateEstimation.obj
 0004:000015e4       $pdata$chart_debug_initialize_data_addresses 000000018005d5e4     StateEstimation_sfun:c41_StateEstimation.obj
 0004:000015f0       $pdata$0$chart_debug_initialize_data_addresses 000000018005d5f0     StateEstimation_sfun:c41_StateEstimation.obj
 0004:000015fc       $pdata$1$chart_debug_initialize_data_addresses 000000018005d5fc     StateEstimation_sfun:c41_StateEstimation.obj
 0004:00001608       $pdata$disable_c41_StateEstimation 000000018005d608     StateEstimation_sfun:c41_StateEstimation.obj
 0004:00001614       $pdata$enable_c41_StateEstimation 000000018005d614     StateEstimation_sfun:c41_StateEstimation.obj
 0004:00001620       $pdata$get_sim_state_c41_StateEstimation 000000018005d620     StateEstimation_sfun:c41_StateEstimation.obj
 0004:0000162c       $pdata$init_script_number_translation 000000018005d62c     StateEstimation_sfun:c41_StateEstimation.obj
 0004:00001638       $pdata$init_simulink_io_address 000000018005d638     StateEstimation_sfun:c41_StateEstimation.obj
 0004:00001644       $pdata$initialize_c41_StateEstimation 000000018005d644     StateEstimation_sfun:c41_StateEstimation.obj
 0004:00001650       $pdata$mdlProcessParameters_c41_StateEstimation 000000018005d650     StateEstimation_sfun:c41_StateEstimation.obj
 0004:0000165c       $pdata$0$mdlProcessParameters_c41_StateEstimation 000000018005d65c     StateEstimation_sfun:c41_StateEstimation.obj
 0004:00001668       $pdata$1$mdlProcessParameters_c41_StateEstimation 000000018005d668     StateEstimation_sfun:c41_StateEstimation.obj
 0004:00001674       $pdata$2$mdlProcessParameters_c41_StateEstimation 000000018005d674     StateEstimation_sfun:c41_StateEstimation.obj
 0004:00001680       $pdata$3$mdlProcessParameters_c41_StateEstimation 000000018005d680     StateEstimation_sfun:c41_StateEstimation.obj
 0004:0000168c       $pdata$mdlRTW_c41_StateEstimation 000000018005d68c     StateEstimation_sfun:c41_StateEstimation.obj
 0004:00001698       $pdata$mdlSetWorkWidths_c41_StateEstimation 000000018005d698     StateEstimation_sfun:c41_StateEstimation.obj
 0004:000016a4       $pdata$2$mdlSetWorkWidths_c41_StateEstimation 000000018005d6a4     StateEstimation_sfun:c41_StateEstimation.obj
 0004:000016b0       $pdata$3$mdlSetWorkWidths_c41_StateEstimation 000000018005d6b0     StateEstimation_sfun:c41_StateEstimation.obj
 0004:000016bc       $pdata$4$mdlSetWorkWidths_c41_StateEstimation 000000018005d6bc     StateEstimation_sfun:c41_StateEstimation.obj
 0004:000016c8       $pdata$mdlStart_c41_StateEstimation 000000018005d6c8     StateEstimation_sfun:c41_StateEstimation.obj
 0004:000016d4       $pdata$set_sim_state_c41_StateEstimation 000000018005d6d4     StateEstimation_sfun:c41_StateEstimation.obj
 0004:000016e0       $pdata$sf_c41_StateEstimation_get_autoinheritance_info 000000018005d6e0     StateEstimation_sfun:c41_StateEstimation.obj
 0004:000016ec       $pdata$sf_c41_StateEstimation_get_check_sum 000000018005d6ec     StateEstimation_sfun:c41_StateEstimation.obj
 0004:000016f8       $pdata$sf_c41_StateEstimation_get_eml_resolved_functions_info 000000018005d6f8     StateEstimation_sfun:c41_StateEstimation.obj
 0004:00001704       $pdata$sf_c41_StateEstimation_get_post_codegen_info 000000018005d704     StateEstimation_sfun:c41_StateEstimation.obj
 0004:00001710       $pdata$sf_c41_StateEstimation_jit_fallback_info 000000018005d710     StateEstimation_sfun:c41_StateEstimation.obj
 0004:0000171c       $pdata$sf_gateway_c41_StateEstimation 000000018005d71c     StateEstimation_sfun:c41_StateEstimation.obj
 0004:00001728       $pdata$sf_get_sim_state_info_c41_StateEstimation 000000018005d728     StateEstimation_sfun:c41_StateEstimation.obj
 0004:00001734       $pdata$sf_opaque_disable_c41_StateEstimation 000000018005d734     StateEstimation_sfun:c41_StateEstimation.obj
 0004:00001740       $pdata$sf_opaque_enable_c41_StateEstimation 000000018005d740     StateEstimation_sfun:c41_StateEstimation.obj
 0004:0000174c       $pdata$sf_opaque_get_sim_state_c41_StateEstimation 000000018005d74c     StateEstimation_sfun:c41_StateEstimation.obj
 0004:00001758       $pdata$sf_opaque_initialize_c41_StateEstimation 000000018005d758     StateEstimation_sfun:c41_StateEstimation.obj
 0004:00001764       $pdata$sf_opaque_set_sim_state_c41_StateEstimation 000000018005d764     StateEstimation_sfun:c41_StateEstimation.obj
 0004:00001770       $pdata$sf_opaque_terminate_c41_StateEstimation 000000018005d770     StateEstimation_sfun:c41_StateEstimation.obj
 0004:0000177c       $pdata$0$sf_opaque_terminate_c41_StateEstimation 000000018005d77c     StateEstimation_sfun:c41_StateEstimation.obj
 0004:00001788       $pdata$1$sf_opaque_terminate_c41_StateEstimation 000000018005d788     StateEstimation_sfun:c41_StateEstimation.obj
 0004:00001794       $pdata$c42_b_emlrt_marshallIn 000000018005d794     StateEstimation_sfun:c42_StateEstimation.obj
 0004:000017a0       $pdata$c42_b_sf_marshallIn 000000018005d7a0     StateEstimation_sfun:c42_StateEstimation.obj
 0004:000017ac       $pdata$c42_b_sf_marshallOut 000000018005d7ac     StateEstimation_sfun:c42_StateEstimation.obj
 0004:000017b8       $pdata$c42_c_emlrt_marshallIn 000000018005d7b8     StateEstimation_sfun:c42_StateEstimation.obj
 0004:000017c4       $pdata$c42_c_sf_marshallIn 000000018005d7c4     StateEstimation_sfun:c42_StateEstimation.obj
 0004:000017d0       $pdata$c42_c_sf_marshallOut 000000018005d7d0     StateEstimation_sfun:c42_StateEstimation.obj
 0004:000017dc       $pdata$c42_d_emlrt_marshallIn 000000018005d7dc     StateEstimation_sfun:c42_StateEstimation.obj
 0004:000017e8       $pdata$c42_d_sf_marshallIn 000000018005d7e8     StateEstimation_sfun:c42_StateEstimation.obj
 0004:000017f4       $pdata$c42_d_sf_marshallOut 000000018005d7f4     StateEstimation_sfun:c42_StateEstimation.obj
 0004:00001800       $pdata$c42_e_emlrt_marshallIn 000000018005d800     StateEstimation_sfun:c42_StateEstimation.obj
 0004:0000180c       $pdata$c42_e_sf_marshallIn 000000018005d80c     StateEstimation_sfun:c42_StateEstimation.obj
 0004:00001818       $pdata$c42_e_sf_marshallOut 000000018005d818     StateEstimation_sfun:c42_StateEstimation.obj
 0004:00001824       $pdata$c42_emlrt_marshallIn 000000018005d824     StateEstimation_sfun:c42_StateEstimation.obj
 0004:00001830       $pdata$c42_f_emlrt_marshallIn 000000018005d830     StateEstimation_sfun:c42_StateEstimation.obj
 0004:0000183c       $pdata$c42_g_emlrt_marshallIn 000000018005d83c     StateEstimation_sfun:c42_StateEstimation.obj
 0004:00001848       $pdata$c42_i_emlrt_marshallIn 000000018005d848     StateEstimation_sfun:c42_StateEstimation.obj
 0004:00001854       $pdata$c42_j_emlrt_marshallIn 000000018005d854     StateEstimation_sfun:c42_StateEstimation.obj
 0004:00001860       $pdata$c42_mldivide        000000018005d860     StateEstimation_sfun:c42_StateEstimation.obj
 0004:0000186c       $pdata$c42_scaleFactor     000000018005d86c     StateEstimation_sfun:c42_StateEstimation.obj
 0004:00001878       $pdata$c42_sf_marshallIn   000000018005d878     StateEstimation_sfun:c42_StateEstimation.obj
 0004:00001884       $pdata$c42_sf_marshallOut  000000018005d884     StateEstimation_sfun:c42_StateEstimation.obj
 0004:00001890       $pdata$c42_warning         000000018005d890     StateEstimation_sfun:c42_StateEstimation.obj
 0004:0000189c       $pdata$chart_debug_initialization 000000018005d89c     StateEstimation_sfun:c42_StateEstimation.obj
 0004:000018a8       $pdata$3$chart_debug_initialization 000000018005d8a8     StateEstimation_sfun:c42_StateEstimation.obj
 0004:000018b4       $pdata$4$chart_debug_initialization 000000018005d8b4     StateEstimation_sfun:c42_StateEstimation.obj
 0004:000018c0       $pdata$chart_debug_initialize_data_addresses 000000018005d8c0     StateEstimation_sfun:c42_StateEstimation.obj
 0004:000018cc       $pdata$0$chart_debug_initialize_data_addresses 000000018005d8cc     StateEstimation_sfun:c42_StateEstimation.obj
 0004:000018d8       $pdata$1$chart_debug_initialize_data_addresses 000000018005d8d8     StateEstimation_sfun:c42_StateEstimation.obj
 0004:000018e4       $pdata$disable_c42_StateEstimation 000000018005d8e4     StateEstimation_sfun:c42_StateEstimation.obj
 0004:000018f0       $pdata$enable_c42_StateEstimation 000000018005d8f0     StateEstimation_sfun:c42_StateEstimation.obj
 0004:000018fc       $pdata$get_sim_state_c42_StateEstimation 000000018005d8fc     StateEstimation_sfun:c42_StateEstimation.obj
 0004:00001908       $pdata$init_script_number_translation 000000018005d908     StateEstimation_sfun:c42_StateEstimation.obj
 0004:00001914       $pdata$init_simulink_io_address 000000018005d914     StateEstimation_sfun:c42_StateEstimation.obj
 0004:00001920       $pdata$initialize_c42_StateEstimation 000000018005d920     StateEstimation_sfun:c42_StateEstimation.obj
 0004:0000192c       $pdata$mdlProcessParameters_c42_StateEstimation 000000018005d92c     StateEstimation_sfun:c42_StateEstimation.obj
 0004:00001938       $pdata$0$mdlProcessParameters_c42_StateEstimation 000000018005d938     StateEstimation_sfun:c42_StateEstimation.obj
 0004:00001944       $pdata$1$mdlProcessParameters_c42_StateEstimation 000000018005d944     StateEstimation_sfun:c42_StateEstimation.obj
 0004:00001950       $pdata$2$mdlProcessParameters_c42_StateEstimation 000000018005d950     StateEstimation_sfun:c42_StateEstimation.obj
 0004:0000195c       $pdata$3$mdlProcessParameters_c42_StateEstimation 000000018005d95c     StateEstimation_sfun:c42_StateEstimation.obj
 0004:00001968       $pdata$mdlRTW_c42_StateEstimation 000000018005d968     StateEstimation_sfun:c42_StateEstimation.obj
 0004:00001974       $pdata$mdlSetWorkWidths_c42_StateEstimation 000000018005d974     StateEstimation_sfun:c42_StateEstimation.obj
 0004:00001980       $pdata$2$mdlSetWorkWidths_c42_StateEstimation 000000018005d980     StateEstimation_sfun:c42_StateEstimation.obj
 0004:0000198c       $pdata$3$mdlSetWorkWidths_c42_StateEstimation 000000018005d98c     StateEstimation_sfun:c42_StateEstimation.obj
 0004:00001998       $pdata$4$mdlSetWorkWidths_c42_StateEstimation 000000018005d998     StateEstimation_sfun:c42_StateEstimation.obj
 0004:000019a4       $pdata$mdlStart_c42_StateEstimation 000000018005d9a4     StateEstimation_sfun:c42_StateEstimation.obj
 0004:000019b0       $pdata$set_sim_state_c42_StateEstimation 000000018005d9b0     StateEstimation_sfun:c42_StateEstimation.obj
 0004:000019bc       $pdata$sf_c42_StateEstimation_get_autoinheritance_info 000000018005d9bc     StateEstimation_sfun:c42_StateEstimation.obj
 0004:000019c8       $pdata$sf_c42_StateEstimation_get_check_sum 000000018005d9c8     StateEstimation_sfun:c42_StateEstimation.obj
 0004:000019d4       $pdata$sf_c42_StateEstimation_get_eml_resolved_functions_info 000000018005d9d4     StateEstimation_sfun:c42_StateEstimation.obj
 0004:000019e0       $pdata$sf_c42_StateEstimation_get_post_codegen_info 000000018005d9e0     StateEstimation_sfun:c42_StateEstimation.obj
 0004:000019ec       $pdata$sf_c42_StateEstimation_jit_fallback_info 000000018005d9ec     StateEstimation_sfun:c42_StateEstimation.obj
 0004:000019f8       $pdata$sf_gateway_c42_StateEstimation 000000018005d9f8     StateEstimation_sfun:c42_StateEstimation.obj
 0004:00001a04       $pdata$sf_get_sim_state_info_c42_StateEstimation 000000018005da04     StateEstimation_sfun:c42_StateEstimation.obj
 0004:00001a10       $pdata$sf_opaque_disable_c42_StateEstimation 000000018005da10     StateEstimation_sfun:c42_StateEstimation.obj
 0004:00001a1c       $pdata$sf_opaque_enable_c42_StateEstimation 000000018005da1c     StateEstimation_sfun:c42_StateEstimation.obj
 0004:00001a28       $pdata$sf_opaque_get_sim_state_c42_StateEstimation 000000018005da28     StateEstimation_sfun:c42_StateEstimation.obj
 0004:00001a34       $pdata$sf_opaque_initialize_c42_StateEstimation 000000018005da34     StateEstimation_sfun:c42_StateEstimation.obj
 0004:00001a40       $pdata$sf_opaque_set_sim_state_c42_StateEstimation 000000018005da40     StateEstimation_sfun:c42_StateEstimation.obj
 0004:00001a4c       $pdata$sf_opaque_terminate_c42_StateEstimation 000000018005da4c     StateEstimation_sfun:c42_StateEstimation.obj
 0004:00001a58       $pdata$0$sf_opaque_terminate_c42_StateEstimation 000000018005da58     StateEstimation_sfun:c42_StateEstimation.obj
 0004:00001a64       $pdata$1$sf_opaque_terminate_c42_StateEstimation 000000018005da64     StateEstimation_sfun:c42_StateEstimation.obj
 0004:00001a70       $pdata$UDP_Communication_debug_initialize 000000018005da70     UDP_Communication_sfun:UDP_Communication_sfun.obj
 0004:00001a7c       $pdata$load_UDP_Communication_optimization_info 000000018005da7c     UDP_Communication_sfun:UDP_Communication_sfun.obj
 0004:00001a88       $pdata$sf_UDP_Communication_autoinheritance_info 000000018005da88     UDP_Communication_sfun:UDP_Communication_sfun.obj
 0004:00001a94       $pdata$sf_UDP_Communication_get_eml_resolved_functions_info 000000018005da94     UDP_Communication_sfun:UDP_Communication_sfun.obj
 0004:00001aa0       $pdata$sf_UDP_Communication_jit_fallback_info 000000018005daa0     UDP_Communication_sfun:UDP_Communication_sfun.obj
 0004:00001aac       $pdata$sf_UDP_Communication_method_dispatcher 000000018005daac     UDP_Communication_sfun:UDP_Communication_sfun.obj
 0004:00001ab8       $pdata$sf_UDP_Communication_process_check_sum_call 000000018005dab8     UDP_Communication_sfun:UDP_Communication_sfun.obj
 0004:00001ac4       $pdata$0$sf_UDP_Communication_process_check_sum_call 000000018005dac4     UDP_Communication_sfun:UDP_Communication_sfun.obj
 0004:00001ad0       $pdata$1$sf_UDP_Communication_process_check_sum_call 000000018005dad0     UDP_Communication_sfun:UDP_Communication_sfun.obj
 0004:00001adc       $pdata$sf_UDP_Communication_third_party_uses_info 000000018005dadc     UDP_Communication_sfun:UDP_Communication_sfun.obj
 0004:00001ae8       $pdata$sf_UDP_Communication_updateBuildInfo_args_info 000000018005dae8     UDP_Communication_sfun:UDP_Communication_sfun.obj
 0004:00001af4       $pdata$unload_UDP_Communication_optimization_info 000000018005daf4     UDP_Communication_sfun:UDP_Communication_sfun.obj
 0004:00001b00       $pdata$c43_Rotation_to_Quaternion 000000018005db00     UDP_Communication_sfun:c43_UDP_Communication.obj
 0004:00001b0c       $pdata$c43_abs             000000018005db0c     UDP_Communication_sfun:c43_UDP_Communication.obj
 0004:00001b18       $pdata$c43_b_emlrt_marshallIn 000000018005db18     UDP_Communication_sfun:c43_UDP_Communication.obj
 0004:00001b24       $pdata$c43_b_sf_marshallIn 000000018005db24     UDP_Communication_sfun:c43_UDP_Communication.obj
 0004:00001b30       $pdata$c43_b_sf_marshallOut 000000018005db30     UDP_Communication_sfun:c43_UDP_Communication.obj
 0004:00001b3c       $pdata$c43_c_emlrt_marshallIn 000000018005db3c     UDP_Communication_sfun:c43_UDP_Communication.obj
 0004:00001b48       $pdata$c43_c_sf_marshallIn 000000018005db48     UDP_Communication_sfun:c43_UDP_Communication.obj
 0004:00001b54       $pdata$c43_c_sf_marshallOut 000000018005db54     UDP_Communication_sfun:c43_UDP_Communication.obj
 0004:00001b60       $pdata$c43_check_forloop_overflow_error 000000018005db60     UDP_Communication_sfun:c43_UDP_Communication.obj
 0004:00001b6c       $pdata$c43_d_emlrt_marshallIn 000000018005db6c     UDP_Communication_sfun:c43_UDP_Communication.obj
 0004:00001b78       $pdata$c43_d_sf_marshallIn 000000018005db78     UDP_Communication_sfun:c43_UDP_Communication.obj
 0004:00001b84       $pdata$c43_d_sf_marshallOut 000000018005db84     UDP_Communication_sfun:c43_UDP_Communication.obj
 0004:00001b90       $pdata$c43_e_emlrt_marshallIn 000000018005db90     UDP_Communication_sfun:c43_UDP_Communication.obj
 0004:00001b9c       $pdata$c43_e_sf_marshallIn 000000018005db9c     UDP_Communication_sfun:c43_UDP_Communication.obj
 0004:00001ba8       $pdata$c43_e_sf_marshallOut 000000018005dba8     UDP_Communication_sfun:c43_UDP_Communication.obj
 0004:00001bb4       $pdata$c43_emlrt_marshallIn 000000018005dbb4     UDP_Communication_sfun:c43_UDP_Communication.obj
 0004:00001bc0       $pdata$c43_error           000000018005dbc0     UDP_Communication_sfun:c43_UDP_Communication.obj
 0004:00001bcc       $pdata$c43_f_emlrt_marshallIn 000000018005dbcc     UDP_Communication_sfun:c43_UDP_Communication.obj
 0004:00001bd8       $pdata$c43_f_sf_marshallIn 000000018005dbd8     UDP_Communication_sfun:c43_UDP_Communication.obj
 0004:00001be4       $pdata$c43_f_sf_marshallOut 000000018005dbe4     UDP_Communication_sfun:c43_UDP_Communication.obj
 0004:00001bf0       $pdata$c43_g_emlrt_marshallIn 000000018005dbf0     UDP_Communication_sfun:c43_UDP_Communication.obj
 0004:00001bfc       $pdata$c43_g_sf_marshallOut 000000018005dbfc     UDP_Communication_sfun:c43_UDP_Communication.obj
 0004:00001c08       $pdata$c43_h_sf_marshallOut 000000018005dc08     UDP_Communication_sfun:c43_UDP_Communication.obj
 0004:00001c14       $pdata$c43_i_emlrt_marshallIn 000000018005dc14     UDP_Communication_sfun:c43_UDP_Communication.obj
 0004:00001c20       $pdata$c43_j_emlrt_marshallIn 000000018005dc20     UDP_Communication_sfun:c43_UDP_Communication.obj
 0004:00001c2c       $pdata$c43_sf_marshallIn   000000018005dc2c     UDP_Communication_sfun:c43_UDP_Communication.obj
 0004:00001c38       $pdata$c43_sf_marshallOut  000000018005dc38     UDP_Communication_sfun:c43_UDP_Communication.obj
 0004:00001c44       $pdata$chart_debug_initialization 000000018005dc44     UDP_Communication_sfun:c43_UDP_Communication.obj
 0004:00001c50       $pdata$3$chart_debug_initialization 000000018005dc50     UDP_Communication_sfun:c43_UDP_Communication.obj
 0004:00001c5c       $pdata$4$chart_debug_initialization 000000018005dc5c     UDP_Communication_sfun:c43_UDP_Communication.obj
 0004:00001c68       $pdata$chart_debug_initialize_data_addresses 000000018005dc68     UDP_Communication_sfun:c43_UDP_Communication.obj
 0004:00001c74       $pdata$0$chart_debug_initialize_data_addresses 000000018005dc74     UDP_Communication_sfun:c43_UDP_Communication.obj
 0004:00001c80       $pdata$1$chart_debug_initialize_data_addresses 000000018005dc80     UDP_Communication_sfun:c43_UDP_Communication.obj
 0004:00001c8c       $pdata$disable_c43_UDP_Communication 000000018005dc8c     UDP_Communication_sfun:c43_UDP_Communication.obj
 0004:00001c98       $pdata$enable_c43_UDP_Communication 000000018005dc98     UDP_Communication_sfun:c43_UDP_Communication.obj
 0004:00001ca4       $pdata$get_sim_state_c43_UDP_Communication 000000018005dca4     UDP_Communication_sfun:c43_UDP_Communication.obj
 0004:00001cb0       $pdata$init_script_number_translation 000000018005dcb0     UDP_Communication_sfun:c43_UDP_Communication.obj
 0004:00001cbc       $pdata$init_simulink_io_address 000000018005dcbc     UDP_Communication_sfun:c43_UDP_Communication.obj
 0004:00001cc8       $pdata$initialize_c43_UDP_Communication 000000018005dcc8     UDP_Communication_sfun:c43_UDP_Communication.obj
 0004:00001cd4       $pdata$mdlProcessParameters_c43_UDP_Communication 000000018005dcd4     UDP_Communication_sfun:c43_UDP_Communication.obj
 0004:00001ce0       $pdata$0$mdlProcessParameters_c43_UDP_Communication 000000018005dce0     UDP_Communication_sfun:c43_UDP_Communication.obj
 0004:00001cec       $pdata$1$mdlProcessParameters_c43_UDP_Communication 000000018005dcec     UDP_Communication_sfun:c43_UDP_Communication.obj
 0004:00001cf8       $pdata$2$mdlProcessParameters_c43_UDP_Communication 000000018005dcf8     UDP_Communication_sfun:c43_UDP_Communication.obj
 0004:00001d04       $pdata$3$mdlProcessParameters_c43_UDP_Communication 000000018005dd04     UDP_Communication_sfun:c43_UDP_Communication.obj
 0004:00001d10       $pdata$mdlRTW_c43_UDP_Communication 000000018005dd10     UDP_Communication_sfun:c43_UDP_Communication.obj
 0004:00001d1c       $pdata$mdlSetWorkWidths_c43_UDP_Communication 000000018005dd1c     UDP_Communication_sfun:c43_UDP_Communication.obj
 0004:00001d28       $pdata$2$mdlSetWorkWidths_c43_UDP_Communication 000000018005dd28     UDP_Communication_sfun:c43_UDP_Communication.obj
 0004:00001d34       $pdata$3$mdlSetWorkWidths_c43_UDP_Communication 000000018005dd34     UDP_Communication_sfun:c43_UDP_Communication.obj
 0004:00001d40       $pdata$4$mdlSetWorkWidths_c43_UDP_Communication 000000018005dd40     UDP_Communication_sfun:c43_UDP_Communication.obj
 0004:00001d4c       $pdata$mdlStart_c43_UDP_Communication 000000018005dd4c     UDP_Communication_sfun:c43_UDP_Communication.obj
 0004:00001d58       $pdata$set_sim_state_c43_UDP_Communication 000000018005dd58     UDP_Communication_sfun:c43_UDP_Communication.obj
 0004:00001d64       $pdata$sf_c43_UDP_Communication_get_autoinheritance_info 000000018005dd64     UDP_Communication_sfun:c43_UDP_Communication.obj
 0004:00001d70       $pdata$sf_c43_UDP_Communication_get_check_sum 000000018005dd70     UDP_Communication_sfun:c43_UDP_Communication.obj
 0004:00001d7c       $pdata$sf_c43_UDP_Communication_get_eml_resolved_functions_info 000000018005dd7c     UDP_Communication_sfun:c43_UDP_Communication.obj
 0004:00001d88       $pdata$sf_c43_UDP_Communication_get_post_codegen_info 000000018005dd88     UDP_Communication_sfun:c43_UDP_Communication.obj
 0004:00001d94       $pdata$sf_c43_UDP_Communication_jit_fallback_info 000000018005dd94     UDP_Communication_sfun:c43_UDP_Communication.obj
 0004:00001da0       $pdata$sf_gateway_c43_UDP_Communication 000000018005dda0     UDP_Communication_sfun:c43_UDP_Communication.obj
 0004:00001dac       $pdata$sf_get_sim_state_info_c43_UDP_Communication 000000018005ddac     UDP_Communication_sfun:c43_UDP_Communication.obj
 0004:00001db8       $pdata$sf_opaque_disable_c43_UDP_Communication 000000018005ddb8     UDP_Communication_sfun:c43_UDP_Communication.obj
 0004:00001dc4       $pdata$sf_opaque_enable_c43_UDP_Communication 000000018005ddc4     UDP_Communication_sfun:c43_UDP_Communication.obj
 0004:00001dd0       $pdata$sf_opaque_get_sim_state_c43_UDP_Communication 000000018005ddd0     UDP_Communication_sfun:c43_UDP_Communication.obj
 0004:00001ddc       $pdata$sf_opaque_initialize_c43_UDP_Communication 000000018005dddc     UDP_Communication_sfun:c43_UDP_Communication.obj
 0004:00001de8       $pdata$sf_opaque_set_sim_state_c43_UDP_Communication 000000018005dde8     UDP_Communication_sfun:c43_UDP_Communication.obj
 0004:00001df4       $pdata$sf_opaque_terminate_c43_UDP_Communication 000000018005ddf4     UDP_Communication_sfun:c43_UDP_Communication.obj
 0004:00001e00       $pdata$0$sf_opaque_terminate_c43_UDP_Communication 000000018005de00     UDP_Communication_sfun:c43_UDP_Communication.obj
 0004:00001e0c       $pdata$1$sf_opaque_terminate_c43_UDP_Communication 000000018005de0c     UDP_Communication_sfun:c43_UDP_Communication.obj
 0004:00001e18       $pdata$__GSHandlerCheck    000000018005de18     MSVCRT:_gshandler_.obj
 0004:00001e24       $pdata$__GSHandlerCheckCommon 000000018005de24     MSVCRT:_gshandler_.obj
 0004:00001e48       $pdata$?dllmain_crt_dispatch@@YAHQEAUHINSTANCE__@@KQEAX@Z 000000018005de48     MSVCRT:dll_dllmain.obj
 0004:00001e54       $pdata$?dllmain_crt_process_attach@@YAHQEAUHINSTANCE__@@QEAX@Z 000000018005de54     MSVCRT:dll_dllmain.obj
 0004:00001e60       $pdata$?dllmain_crt_process_detach@@YAH_N@Z 000000018005de60     MSVCRT:dll_dllmain.obj
 0004:00001e6c       $pdata$?dllmain_dispatch@@YAHQEAUHINSTANCE__@@KQEAX@Z 000000018005de6c     MSVCRT:dll_dllmain.obj
 0004:00001e78       $pdata$?dllmain_raw@@YAHQEAUHINSTANCE__@@KQEAX@Z 000000018005de78     MSVCRT:dll_dllmain.obj
 0004:00001e84       $pdata$_DllMainCRTStartup  000000018005de84     MSVCRT:dll_dllmain.obj
 0004:00001e90       $pdata$__raise_securityfailure 000000018005de90     MSVCRT:gs_report.obj
 0004:00001e9c       $pdata$__report_gsfailure  000000018005de9c     MSVCRT:gs_report.obj
 0004:00001ea8       $pdata$__report_rangecheckfailure 000000018005dea8     MSVCRT:gs_report.obj
 0004:00001eb4       $pdata$__report_securityfailure 000000018005deb4     MSVCRT:gs_report.obj
 0004:00001ec0       $pdata$__report_securityfailureEx 000000018005dec0     MSVCRT:gs_report.obj
 0004:00001ecc       $pdata$capture_current_context 000000018005decc     MSVCRT:gs_report.obj
 0004:00001ed8       $pdata$capture_previous_context 000000018005ded8     MSVCRT:gs_report.obj
 0004:00001ee4       $pdata$?configure_argv@__scrt_narrow_argv_policy@@SAHXZ 000000018005dee4     MSVCRT:utility.obj
 0004:00001ef0       $pdata$__scrt_acquire_startup_lock 000000018005def0     MSVCRT:utility.obj
 0004:00001efc       $pdata$__scrt_dllmain_after_initialize_c 000000018005defc     MSVCRT:utility.obj
 0004:00001f08       $pdata$__scrt_dllmain_before_initialize_c 000000018005df08     MSVCRT:utility.obj
 0004:00001f14       $pdata$__scrt_dllmain_crt_thread_attach 000000018005df14     MSVCRT:utility.obj
 0004:00001f20       $pdata$__scrt_dllmain_crt_thread_detach 000000018005df20     MSVCRT:utility.obj
 0004:00001f2c       $pdata$__scrt_dllmain_exception_filter 000000018005df2c     MSVCRT:utility.obj
 0004:00001f38       $pdata$__scrt_dllmain_uninitialize_c 000000018005df38     MSVCRT:utility.obj
 0004:00001f44       $pdata$__scrt_dllmain_uninitialize_critical 000000018005df44     MSVCRT:utility.obj
 0004:00001f50       $pdata$__scrt_initialize_crt 000000018005df50     MSVCRT:utility.obj
 0004:00001f5c       $pdata$__scrt_initialize_onexit_tables 000000018005df5c     MSVCRT:utility.obj
 0004:00001f68       $pdata$__scrt_is_nonwritable_in_current_image 000000018005df68     MSVCRT:utility.obj
 0004:00001f74       $pdata$__scrt_release_startup_lock 000000018005df74     MSVCRT:utility.obj
 0004:00001f80       $pdata$__scrt_uninitialize_crt 000000018005df80     MSVCRT:utility.obj
 0004:00001f8c       $pdata$_onexit             000000018005df8c     MSVCRT:utility.obj
 0004:00001f98       $pdata$atexit              000000018005df98     MSVCRT:utility.obj
 0004:00001fa4       $pdata$__security_init_cookie 000000018005dfa4     MSVCRT:gs_support.obj
 0004:00001fb0       $pdata$DllMain             000000018005dfb0     MSVCRT:dll_dllmain_stub.obj
 0004:00001fbc       $pdata$__scrt_initialize_default_local_stdio_options 000000018005dfbc     MSVCRT:default_local_stdio_options.obj
 0004:00001fc8       $pdata$__scrt_fastfail     000000018005dfc8     MSVCRT:utility_desktop.obj
 0004:00001fd4       $pdata$__scrt_get_show_window_mode 000000018005dfd4     MSVCRT:utility_desktop.obj
 0004:00001fe0       $pdata$__scrt_is_managed_app 000000018005dfe0     MSVCRT:utility_desktop.obj
 0004:00001fec       $pdata$__scrt_unhandled_exception_filter 000000018005dfec     MSVCRT:utility_desktop.obj
 0004:00001ff8       $pdata$_RTC_Initialize     000000018005dff8     MSVCRT:_initsect_.obj
 0004:00002004       $pdata$_RTC_Terminate      000000018005e004     MSVCRT:_initsect_.obj
 0004:00002010       $pdata$__isa_available_init 000000018005e010     MSVCRT:_cpu_disp_.obj
 0004:00002028       $pdata$?fin$0@?0??dllmain_crt_process_attach@@YAHQEAUHINSTANCE__@@QEAX@Z@4HA 000000018005e028     MSVCRT:dll_dllmain.obj
 0004:00002034       $pdata$?fin$0@?0??dllmain_crt_process_detach@@YAH_N@Z@4HA 000000018005e034     MSVCRT:dll_dllmain.obj
 0004:00002040       $pdata$?filt$0@?0??dllmain_dispatch@@YAHQEAUHINSTANCE__@@KQEAX@Z@4HA 000000018005e040     MSVCRT:dll_dllmain.obj
 0004:0000204c       $pdata$__scrt_is_nonwritable_in_current_image$filt$0 000000018005e04c     MSVCRT:utility.obj
 0005:00000000       __guard_fids_?dllmain_crt_process_attach@@YAHQEAUHINSTANCE__@@QEAX@Z 000000018005f000     MSVCRT:dll_dllmain.obj
 0005:00000008       __guard_fids_?dllmain_dispatch@@YAHQEAUHINSTANCE__@@KQEAX@Z 000000018005f008     MSVCRT:dll_dllmain.obj
 0005:0000000c       __guard_fids___scrt_set_unhandled_exception_filter 000000018005f00c     MSVCRT:utility_desktop.obj
 0005:00000010       __guard_fids__             000000018005f010     MSVCRT:guard_support.obj
 0005:00000014       __guard_fids__guard_icall_checks_enforced 000000018005f014     MSVCRT:guard_support.obj
